
D:/Documents/Uni/embeddedpico/embedded_systems_rp_pico/embedded/build/vga_pio/vga_pio.elf:     file format elf32-littlearm

Sections:
Idx Name          Size      VMA       LMA       File off  Algn
  0 .boot2        00000100  10000000  10000000  00001000  2**0
                  CONTENTS, ALLOC, LOAD, READONLY, CODE
  1 .text         00002cb0  10000100  10000100  00001100  2**3
                  CONTENTS, ALLOC, LOAD, READONLY, CODE
  2 .rodata       0000018c  10002db0  10002db0  00003db0  2**2
                  CONTENTS, ALLOC, LOAD, READONLY, DATA
  3 .binary_info  00000020  10002f3c  10002f3c  00003f3c  2**2
                  CONTENTS, ALLOC, LOAD, DATA
  4 .ram_vector_table 000000c0  20000000  20000000  000042dc  2**2
                  CONTENTS
  5 .data         0000021c  200000c0  10002f5c  000040c0  2**4
                  CONTENTS, ALLOC, LOAD, READONLY, CODE
  6 .uninitialized_data 00000000  200002dc  200002dc  0000439c  2**0
                  CONTENTS
  7 .scratch_x    00000000  20040000  20040000  0000439c  2**0
                  CONTENTS
  8 .scratch_y    00000000  20041000  20041000  0000439c  2**0
                  CONTENTS
  9 .bss          00025bfc  200002e0  200002e0  000042e0  2**3
                  ALLOC
 10 .heap         00000800  20025edc  20025edc  0000439c  2**2
                  CONTENTS, READONLY
 11 .stack_dummy  00000800  20041000  20041000  00004ba0  2**5
                  CONTENTS, READONLY
 12 .ARM.attributes 00000028  00000000  00000000  000053a0  2**0
                  CONTENTS, READONLY
 13 .comment      00000049  00000000  00000000  000053c8  2**0
                  CONTENTS, READONLY
 14 .debug_frame  00000028  00000000  00000000  00005414  2**2
                  CONTENTS, READONLY, DEBUGGING, OCTETS

D:/Documents/Uni/embeddedpico/embedded_systems_rp_pico/embedded/build/vga_pio/vga_pio.elf:     file format elf32-littlearm


Disassembly of section .boot2:

10000000 <__boot2_start__>:
10000000:	4b32b500 	.word	0x4b32b500
10000004:	60582021 	.word	0x60582021
10000008:	21026898 	.word	0x21026898
1000000c:	60984388 	.word	0x60984388
10000010:	611860d8 	.word	0x611860d8
10000014:	4b2e6158 	.word	0x4b2e6158
10000018:	60992100 	.word	0x60992100
1000001c:	61592102 	.word	0x61592102
10000020:	22f02101 	.word	0x22f02101
10000024:	492b5099 	.word	0x492b5099
10000028:	21016019 	.word	0x21016019
1000002c:	20356099 	.word	0x20356099
10000030:	f844f000 	.word	0xf844f000
10000034:	42902202 	.word	0x42902202
10000038:	2106d014 	.word	0x2106d014
1000003c:	f0006619 	.word	0xf0006619
10000040:	6e19f834 	.word	0x6e19f834
10000044:	66192101 	.word	0x66192101
10000048:	66182000 	.word	0x66182000
1000004c:	f000661a 	.word	0xf000661a
10000050:	6e19f82c 	.word	0x6e19f82c
10000054:	6e196e19 	.word	0x6e196e19
10000058:	f0002005 	.word	0xf0002005
1000005c:	2101f82f 	.word	0x2101f82f
10000060:	d1f94208 	.word	0xd1f94208
10000064:	60992100 	.word	0x60992100
10000068:	6019491b 	.word	0x6019491b
1000006c:	60592100 	.word	0x60592100
10000070:	481b491a 	.word	0x481b491a
10000074:	21016001 	.word	0x21016001
10000078:	21eb6099 	.word	0x21eb6099
1000007c:	21a06619 	.word	0x21a06619
10000080:	f0006619 	.word	0xf0006619
10000084:	2100f812 	.word	0x2100f812
10000088:	49166099 	.word	0x49166099
1000008c:	60014814 	.word	0x60014814
10000090:	60992101 	.word	0x60992101
10000094:	2800bc01 	.word	0x2800bc01
10000098:	4700d000 	.word	0x4700d000
1000009c:	49134812 	.word	0x49134812
100000a0:	c8036008 	.word	0xc8036008
100000a4:	8808f380 	.word	0x8808f380
100000a8:	b5034708 	.word	0xb5034708
100000ac:	20046a99 	.word	0x20046a99
100000b0:	d0fb4201 	.word	0xd0fb4201
100000b4:	42012001 	.word	0x42012001
100000b8:	bd03d1f8 	.word	0xbd03d1f8
100000bc:	6618b502 	.word	0x6618b502
100000c0:	f7ff6618 	.word	0xf7ff6618
100000c4:	6e18fff2 	.word	0x6e18fff2
100000c8:	bd026e18 	.word	0xbd026e18
100000cc:	40020000 	.word	0x40020000
100000d0:	18000000 	.word	0x18000000
100000d4:	00070000 	.word	0x00070000
100000d8:	005f0300 	.word	0x005f0300
100000dc:	00002221 	.word	0x00002221
100000e0:	180000f4 	.word	0x180000f4
100000e4:	a0002022 	.word	0xa0002022
100000e8:	10000100 	.word	0x10000100
100000ec:	e000ed08 	.word	0xe000ed08
	...
100000fc:	7a4eb274 	.word	0x7a4eb274

Disassembly of section .text:

10000100 <__VECTOR_TABLE>:
10000100:	20042000 	.word	0x20042000
10000104:	100001f7 	.word	0x100001f7
10000108:	100001c3 	.word	0x100001c3
1000010c:	100001c5 	.word	0x100001c5
10000110:	100001c1 	.word	0x100001c1
10000114:	100001c1 	.word	0x100001c1
10000118:	100001c1 	.word	0x100001c1
1000011c:	100001c1 	.word	0x100001c1
10000120:	100001c1 	.word	0x100001c1
10000124:	100001c1 	.word	0x100001c1
10000128:	100001c1 	.word	0x100001c1
1000012c:	100001c7 	.word	0x100001c7
10000130:	100001c1 	.word	0x100001c1
10000134:	100001c1 	.word	0x100001c1
10000138:	100001c9 	.word	0x100001c9
1000013c:	100001cb 	.word	0x100001cb
10000140:	100001cd 	.word	0x100001cd
10000144:	100001cd 	.word	0x100001cd
10000148:	100001cd 	.word	0x100001cd
1000014c:	100001cd 	.word	0x100001cd
10000150:	100001cd 	.word	0x100001cd
10000154:	100001cd 	.word	0x100001cd
10000158:	100001cd 	.word	0x100001cd
1000015c:	100001cd 	.word	0x100001cd
10000160:	100001cd 	.word	0x100001cd
10000164:	100001cd 	.word	0x100001cd
10000168:	100001cd 	.word	0x100001cd
1000016c:	100001cd 	.word	0x100001cd
10000170:	100001cd 	.word	0x100001cd
10000174:	100001cd 	.word	0x100001cd
10000178:	100001cd 	.word	0x100001cd
1000017c:	100001cd 	.word	0x100001cd
10000180:	100001cd 	.word	0x100001cd
10000184:	100001cd 	.word	0x100001cd
10000188:	100001cd 	.word	0x100001cd
1000018c:	100001cd 	.word	0x100001cd
10000190:	100001cd 	.word	0x100001cd
10000194:	100001cd 	.word	0x100001cd
10000198:	100001cd 	.word	0x100001cd
1000019c:	100001cd 	.word	0x100001cd
100001a0:	100001cd 	.word	0x100001cd
100001a4:	100001cd 	.word	0x100001cd
100001a8:	100001cd 	.word	0x100001cd
100001ac:	100001cd 	.word	0x100001cd
100001b0:	100001cd 	.word	0x100001cd
100001b4:	100001cd 	.word	0x100001cd
100001b8:	100001cd 	.word	0x100001cd
100001bc:	100001cd 	.word	0x100001cd

100001c0 <isr_invalid>:
100001c0:	be00      	bkpt	0x0000

100001c2 <isr_nmi>:
100001c2:	be00      	bkpt	0x0000

100001c4 <isr_hardfault>:
100001c4:	be00      	bkpt	0x0000

100001c6 <isr_svcall>:
100001c6:	be00      	bkpt	0x0000

100001c8 <isr_pendsv>:
100001c8:	be00      	bkpt	0x0000

100001ca <isr_systick>:
100001ca:	be00      	bkpt	0x0000

100001cc <__unhandled_user_irq>:
100001cc:	f3ef 8005 	mrs	r0, IPSR
100001d0:	3810      	subs	r0, #16

100001d2 <unhandled_user_irq_num_in_r0>:
100001d2:	be00      	bkpt	0x0000

100001d4 <binary_info_header>:
100001d4:	7188ebf2 	.word	0x7188ebf2
100001d8:	10002f3c 	.word	0x10002f3c
100001dc:	10002f5c 	.word	0x10002f5c
100001e0:	10000234 	.word	0x10000234
100001e4:	e71aa390 	.word	0xe71aa390

100001e8 <_entry_point>:
100001e8:	2000      	movs	r0, #0
100001ea:	491f      	ldr	r1, [pc, #124]	; (10000268 <hold_non_core0_in_bootrom+0xa>)
100001ec:	6008      	str	r0, [r1, #0]
100001ee:	c806      	ldmia	r0!, {r1, r2}
100001f0:	f381 8808 	msr	MSP, r1
100001f4:	4710      	bx	r2

100001f6 <_reset_handler>:
100001f6:	481d      	ldr	r0, [pc, #116]	; (1000026c <hold_non_core0_in_bootrom+0xe>)
100001f8:	6800      	ldr	r0, [r0, #0]
100001fa:	2800      	cmp	r0, #0
100001fc:	d12f      	bne.n	1000025e <hold_non_core0_in_bootrom>
100001fe:	a40d      	add	r4, pc, #52	; (adr r4, 10000234 <data_cpy_table>)
10000200:	cc0e      	ldmia	r4!, {r1, r2, r3}
10000202:	2900      	cmp	r1, #0
10000204:	d002      	beq.n	1000020c <_reset_handler+0x16>
10000206:	f000 f812 	bl	1000022e <data_cpy>
1000020a:	e7f9      	b.n	10000200 <_reset_handler+0xa>
1000020c:	4918      	ldr	r1, [pc, #96]	; (10000270 <hold_non_core0_in_bootrom+0x12>)
1000020e:	4a19      	ldr	r2, [pc, #100]	; (10000274 <hold_non_core0_in_bootrom+0x16>)
10000210:	2000      	movs	r0, #0
10000212:	e000      	b.n	10000216 <bss_fill_test>

10000214 <bss_fill_loop>:
10000214:	c101      	stmia	r1!, {r0}

10000216 <bss_fill_test>:
10000216:	4291      	cmp	r1, r2
10000218:	d1fc      	bne.n	10000214 <bss_fill_loop>

1000021a <platform_entry>:
1000021a:	4917      	ldr	r1, [pc, #92]	; (10000278 <hold_non_core0_in_bootrom+0x1a>)
1000021c:	4788      	blx	r1
1000021e:	4917      	ldr	r1, [pc, #92]	; (1000027c <hold_non_core0_in_bootrom+0x1e>)
10000220:	4788      	blx	r1
10000222:	4917      	ldr	r1, [pc, #92]	; (10000280 <hold_non_core0_in_bootrom+0x22>)
10000224:	4788      	blx	r1
10000226:	be00      	bkpt	0x0000
10000228:	e7fd      	b.n	10000226 <platform_entry+0xc>

1000022a <data_cpy_loop>:
1000022a:	c901      	ldmia	r1!, {r0}
1000022c:	c201      	stmia	r2!, {r0}

1000022e <data_cpy>:
1000022e:	429a      	cmp	r2, r3
10000230:	d3fb      	bcc.n	1000022a <data_cpy_loop>
10000232:	4770      	bx	lr

10000234 <data_cpy_table>:
10000234:	10002f5c 	.word	0x10002f5c
10000238:	200000c0 	.word	0x200000c0
1000023c:	200002dc 	.word	0x200002dc
10000240:	10003178 	.word	0x10003178
10000244:	20040000 	.word	0x20040000
10000248:	20040000 	.word	0x20040000
1000024c:	10003178 	.word	0x10003178
10000250:	20041000 	.word	0x20041000
10000254:	20041000 	.word	0x20041000
10000258:	00000000 	.word	0x00000000
1000025c:	4770      	bx	lr

1000025e <hold_non_core0_in_bootrom>:
1000025e:	4809      	ldr	r0, [pc, #36]	; (10000284 <hold_non_core0_in_bootrom+0x26>)
10000260:	f001 fff6 	bl	10002250 <rom_func_lookup>
10000264:	4700      	bx	r0
10000266:	0000      	.short	0x0000
10000268:	e000ed08 	.word	0xe000ed08
1000026c:	d0000000 	.word	0xd0000000
10000270:	200002e0 	.word	0x200002e0
10000274:	20025edc 	.word	0x20025edc
10000278:	100020bd 	.word	0x100020bd
1000027c:	100004e9 	.word	0x100004e9
10000280:	100021bd 	.word	0x100021bd
10000284:	00005657 	.word	0x00005657

10000288 <__bi_50>:
10000288:	50520006 5360b3ab 10002ed0              ..RP..`S....

10000294 <__bi_38>:
10000294:	50520006 02031c86 10002ee0              ..RP........

100002a0 <__bi_30>:
100002a0:	50520006 9da22254 10002ee8              ..RPT"......

100002ac <__bi_22>:
100002ac:	50520005 68f465de 10003178              ..RP.e.hx1..

100002b8 <_init>:
100002b8:	b5f8      	push	{r3, r4, r5, r6, r7, lr}
100002ba:	46c0      	nop			; (mov r8, r8)

100002bc <__do_global_dtors_aux>:
100002bc:	b510      	push	{r4, lr}
100002be:	4c06      	ldr	r4, [pc, #24]	; (100002d8 <__do_global_dtors_aux+0x1c>)
100002c0:	7823      	ldrb	r3, [r4, #0]
100002c2:	2b00      	cmp	r3, #0
100002c4:	d107      	bne.n	100002d6 <__do_global_dtors_aux+0x1a>
100002c6:	4b05      	ldr	r3, [pc, #20]	; (100002dc <__do_global_dtors_aux+0x20>)
100002c8:	2b00      	cmp	r3, #0
100002ca:	d002      	beq.n	100002d2 <__do_global_dtors_aux+0x16>
100002cc:	4804      	ldr	r0, [pc, #16]	; (100002e0 <__do_global_dtors_aux+0x24>)
100002ce:	e000      	b.n	100002d2 <__do_global_dtors_aux+0x16>
100002d0:	bf00      	nop
100002d2:	2301      	movs	r3, #1
100002d4:	7023      	strb	r3, [r4, #0]
100002d6:	bd10      	pop	{r4, pc}
100002d8:	200003e0 	.word	0x200003e0
100002dc:	00000000 	.word	0x00000000
100002e0:	10002db0 	.word	0x10002db0

100002e4 <frame_dummy>:
100002e4:	4b04      	ldr	r3, [pc, #16]	; (100002f8 <frame_dummy+0x14>)
100002e6:	b510      	push	{r4, lr}
100002e8:	2b00      	cmp	r3, #0
100002ea:	d003      	beq.n	100002f4 <frame_dummy+0x10>
100002ec:	4903      	ldr	r1, [pc, #12]	; (100002fc <frame_dummy+0x18>)
100002ee:	4804      	ldr	r0, [pc, #16]	; (10000300 <frame_dummy+0x1c>)
100002f0:	e000      	b.n	100002f4 <frame_dummy+0x10>
100002f2:	bf00      	nop
100002f4:	bd10      	pop	{r4, pc}
100002f6:	46c0      	nop			; (mov r8, r8)
100002f8:	00000000 	.word	0x00000000
100002fc:	200003e4 	.word	0x200003e4
10000300:	10002db0 	.word	0x10002db0

10000304 <configure_pio>:
10000304:	b5f0      	push	{r4, r5, r6, r7, lr}
10000306:	46ce      	mov	lr, r9
10000308:	4647      	mov	r7, r8
1000030a:	b580      	push	{r7, lr}
1000030c:	b08b      	sub	sp, #44	; 0x2c
1000030e:	4f6b      	ldr	r7, [pc, #428]	; (100004bc <configure_pio+0x1b8>)
10000310:	496b      	ldr	r1, [pc, #428]	; (100004c0 <configure_pio+0x1bc>)
10000312:	6838      	ldr	r0, [r7, #0]
10000314:	f002 fc28 	bl	10002b68 <pio_add_program>
10000318:	0005      	movs	r5, r0
1000031a:	496a      	ldr	r1, [pc, #424]	; (100004c4 <configure_pio+0x1c0>)
1000031c:	6838      	ldr	r0, [r7, #0]
1000031e:	f002 fc23 	bl	10002b68 <pio_add_program>
10000322:	0004      	movs	r4, r0
10000324:	4968      	ldr	r1, [pc, #416]	; (100004c8 <configure_pio+0x1c4>)
10000326:	6838      	ldr	r0, [r7, #0]
10000328:	f002 fc1e 	bl	10002b68 <pio_add_program>
1000032c:	0006      	movs	r6, r0
1000032e:	683f      	ldr	r7, [r7, #0]
10000330:	2300      	movs	r3, #0
10000332:	9309      	str	r3, [sp, #36]	; 0x24
10000334:	2380      	movs	r3, #128	; 0x80
10000336:	025b      	lsls	r3, r3, #9
10000338:	4699      	mov	r9, r3
1000033a:	9306      	str	r3, [sp, #24]
1000033c:	23f8      	movs	r3, #248	; 0xf8
1000033e:	025b      	lsls	r3, r3, #9
10000340:	9307      	str	r3, [sp, #28]
10000342:	23c0      	movs	r3, #192	; 0xc0
10000344:	031b      	lsls	r3, r3, #12
10000346:	4698      	mov	r8, r3
10000348:	9308      	str	r3, [sp, #32]
1000034a:	2210      	movs	r2, #16
1000034c:	a906      	add	r1, sp, #24
1000034e:	a802      	add	r0, sp, #8
10000350:	f002 fa92 	bl	10002878 <__wrap___aeabi_memcpy>
10000354:	464b      	mov	r3, r9
10000356:	9302      	str	r3, [sp, #8]
10000358:	1c6b      	adds	r3, r5, #1
1000035a:	01db      	lsls	r3, r3, #7
1000035c:	002a      	movs	r2, r5
1000035e:	3208      	adds	r2, #8
10000360:	0312      	lsls	r2, r2, #12
10000362:	4313      	orrs	r3, r2
10000364:	9303      	str	r3, [sp, #12]
10000366:	4643      	mov	r3, r8
10000368:	9304      	str	r3, [sp, #16]
1000036a:	2210      	movs	r2, #16
1000036c:	a902      	add	r1, sp, #8
1000036e:	a806      	add	r0, sp, #24
10000370:	f002 fa82 	bl	10002878 <__wrap___aeabi_memcpy>
10000374:	4b55      	ldr	r3, [pc, #340]	; (100004cc <configure_pio+0x1c8>)
10000376:	9309      	str	r3, [sp, #36]	; 0x24
10000378:	23a0      	movs	r3, #160	; 0xa0
1000037a:	02db      	lsls	r3, r3, #11
1000037c:	9306      	str	r3, [sp, #24]
1000037e:	4b54      	ldr	r3, [pc, #336]	; (100004d0 <configure_pio+0x1cc>)
10000380:	18f9      	adds	r1, r7, r3
10000382:	1e4b      	subs	r3, r1, #1
10000384:	4199      	sbcs	r1, r3
10000386:	3106      	adds	r1, #6
10000388:	2004      	movs	r0, #4
1000038a:	f000 fbdd 	bl	10000b48 <gpio_set_function>
1000038e:	2301      	movs	r3, #1
10000390:	9300      	str	r3, [sp, #0]
10000392:	2204      	movs	r2, #4
10000394:	2100      	movs	r1, #0
10000396:	0038      	movs	r0, r7
10000398:	f002 fc02 	bl	10002ba0 <pio_sm_set_consecutive_pindirs>
1000039c:	aa06      	add	r2, sp, #24
1000039e:	0013      	movs	r3, r2
100003a0:	002a      	movs	r2, r5
100003a2:	2100      	movs	r1, #0
100003a4:	0038      	movs	r0, r7
100003a6:	f002 fc5f 	bl	10002c68 <pio_sm_init>
100003aa:	4b44      	ldr	r3, [pc, #272]	; (100004bc <configure_pio+0x1b8>)
100003ac:	681d      	ldr	r5, [r3, #0]
100003ae:	1c63      	adds	r3, r4, #1
100003b0:	01db      	lsls	r3, r3, #7
100003b2:	0022      	movs	r2, r4
100003b4:	3209      	adds	r2, #9
100003b6:	0312      	lsls	r2, r2, #12
100003b8:	4313      	orrs	r3, r2
100003ba:	4a46      	ldr	r2, [pc, #280]	; (100004d4 <configure_pio+0x1d0>)
100003bc:	4013      	ands	r3, r2
100003be:	2280      	movs	r2, #128	; 0x80
100003c0:	05d2      	lsls	r2, r2, #23
100003c2:	4313      	orrs	r3, r2
100003c4:	9307      	str	r3, [sp, #28]
100003c6:	4643      	mov	r3, r8
100003c8:	9308      	str	r3, [sp, #32]
100003ca:	4b43      	ldr	r3, [pc, #268]	; (100004d8 <configure_pio+0x1d4>)
100003cc:	9309      	str	r3, [sp, #36]	; 0x24
100003ce:	23a0      	movs	r3, #160	; 0xa0
100003d0:	02db      	lsls	r3, r3, #11
100003d2:	9306      	str	r3, [sp, #24]
100003d4:	4b3e      	ldr	r3, [pc, #248]	; (100004d0 <configure_pio+0x1cc>)
100003d6:	18e9      	adds	r1, r5, r3
100003d8:	1e4b      	subs	r3, r1, #1
100003da:	4199      	sbcs	r1, r3
100003dc:	3106      	adds	r1, #6
100003de:	2002      	movs	r0, #2
100003e0:	f000 fbb2 	bl	10000b48 <gpio_set_function>
100003e4:	2301      	movs	r3, #1
100003e6:	9300      	str	r3, [sp, #0]
100003e8:	2202      	movs	r2, #2
100003ea:	2101      	movs	r1, #1
100003ec:	0028      	movs	r0, r5
100003ee:	f002 fbd7 	bl	10002ba0 <pio_sm_set_consecutive_pindirs>
100003f2:	aa06      	add	r2, sp, #24
100003f4:	0013      	movs	r3, r2
100003f6:	0022      	movs	r2, r4
100003f8:	2101      	movs	r1, #1
100003fa:	0028      	movs	r0, r5
100003fc:	f002 fc34 	bl	10002c68 <pio_sm_init>
10000400:	4b2e      	ldr	r3, [pc, #184]	; (100004bc <configure_pio+0x1b8>)
10000402:	681f      	ldr	r7, [r3, #0]
10000404:	2300      	movs	r3, #0
10000406:	9309      	str	r3, [sp, #36]	; 0x24
10000408:	464d      	mov	r5, r9
1000040a:	9506      	str	r5, [sp, #24]
1000040c:	23f8      	movs	r3, #248	; 0xf8
1000040e:	025b      	lsls	r3, r3, #9
10000410:	9307      	str	r3, [sp, #28]
10000412:	4644      	mov	r4, r8
10000414:	9408      	str	r4, [sp, #32]
10000416:	2210      	movs	r2, #16
10000418:	a906      	add	r1, sp, #24
1000041a:	a802      	add	r0, sp, #8
1000041c:	f002 fa2c 	bl	10002878 <__wrap___aeabi_memcpy>
10000420:	9502      	str	r5, [sp, #8]
10000422:	1cb3      	adds	r3, r6, #2
10000424:	01db      	lsls	r3, r3, #7
10000426:	0032      	movs	r2, r6
10000428:	3208      	adds	r2, #8
1000042a:	0312      	lsls	r2, r2, #12
1000042c:	4313      	orrs	r3, r2
1000042e:	9303      	str	r3, [sp, #12]
10000430:	9404      	str	r4, [sp, #16]
10000432:	2210      	movs	r2, #16
10000434:	a902      	add	r1, sp, #8
10000436:	a806      	add	r0, sp, #24
10000438:	f002 fa1e 	bl	10002878 <__wrap___aeabi_memcpy>
1000043c:	4b27      	ldr	r3, [pc, #156]	; (100004dc <configure_pio+0x1d8>)
1000043e:	9309      	str	r3, [sp, #36]	; 0x24
10000440:	4b23      	ldr	r3, [pc, #140]	; (100004d0 <configure_pio+0x1cc>)
10000442:	18fd      	adds	r5, r7, r3
10000444:	1e6b      	subs	r3, r5, #1
10000446:	419d      	sbcs	r5, r3
10000448:	3506      	adds	r5, #6
1000044a:	2406      	movs	r4, #6
1000044c:	0029      	movs	r1, r5
1000044e:	0020      	movs	r0, r4
10000450:	f000 fb7a 	bl	10000b48 <gpio_set_function>
10000454:	3401      	adds	r4, #1
10000456:	2c0e      	cmp	r4, #14
10000458:	d1f8      	bne.n	1000044c <configure_pio+0x148>
1000045a:	2301      	movs	r3, #1
1000045c:	9300      	str	r3, [sp, #0]
1000045e:	3307      	adds	r3, #7
10000460:	2206      	movs	r2, #6
10000462:	2102      	movs	r1, #2
10000464:	0038      	movs	r0, r7
10000466:	f002 fb9b 	bl	10002ba0 <pio_sm_set_consecutive_pindirs>
1000046a:	ab06      	add	r3, sp, #24
1000046c:	0032      	movs	r2, r6
1000046e:	2102      	movs	r1, #2
10000470:	0038      	movs	r0, r7
10000472:	f002 fbf9 	bl	10002c68 <pio_sm_init>
10000476:	4b11      	ldr	r3, [pc, #68]	; (100004bc <configure_pio+0x1b8>)
10000478:	681b      	ldr	r3, [r3, #0]
1000047a:	2180      	movs	r1, #128	; 0x80
1000047c:	0249      	lsls	r1, r1, #9
1000047e:	685a      	ldr	r2, [r3, #4]
10000480:	420a      	tst	r2, r1
10000482:	d1fc      	bne.n	1000047e <configure_pio+0x17a>
10000484:	4a16      	ldr	r2, [pc, #88]	; (100004e0 <configure_pio+0x1dc>)
10000486:	611a      	str	r2, [r3, #16]
10000488:	2180      	movs	r1, #128	; 0x80
1000048a:	0289      	lsls	r1, r1, #10
1000048c:	685a      	ldr	r2, [r3, #4]
1000048e:	420a      	tst	r2, r1
10000490:	d1fc      	bne.n	1000048c <configure_pio+0x188>
10000492:	22e0      	movs	r2, #224	; 0xe0
10000494:	32ff      	adds	r2, #255	; 0xff
10000496:	615a      	str	r2, [r3, #20]
10000498:	2180      	movs	r1, #128	; 0x80
1000049a:	02c9      	lsls	r1, r1, #11
1000049c:	685a      	ldr	r2, [r3, #4]
1000049e:	420a      	tst	r2, r1
100004a0:	d1fc      	bne.n	1000049c <configure_pio+0x198>
100004a2:	2240      	movs	r2, #64	; 0x40
100004a4:	32ff      	adds	r2, #255	; 0xff
100004a6:	619a      	str	r2, [r3, #24]
100004a8:	2280      	movs	r2, #128	; 0x80
100004aa:	0192      	lsls	r2, r2, #6
100004ac:	4313      	orrs	r3, r2
100004ae:	4a0d      	ldr	r2, [pc, #52]	; (100004e4 <configure_pio+0x1e0>)
100004b0:	601a      	str	r2, [r3, #0]
100004b2:	b00b      	add	sp, #44	; 0x2c
100004b4:	bcc0      	pop	{r6, r7}
100004b6:	46b9      	mov	r9, r7
100004b8:	46b0      	mov	r8, r6
100004ba:	bdf0      	pop	{r4, r5, r6, r7, pc}
100004bc:	200001e8 	.word	0x200001e8
100004c0:	10002db0 	.word	0x10002db0
100004c4:	10002de8 	.word	0x10002de8
100004c8:	10002dcc 	.word	0x10002dcc
100004cc:	04000080 	.word	0x04000080
100004d0:	afe00000 	.word	0xafe00000
100004d4:	9fffffff 	.word	0x9fffffff
100004d8:	44000840 	.word	0x44000840
100004dc:	00800006 	.word	0x00800006
100004e0:	0000028f 	.word	0x0000028f
100004e4:	00000707 	.word	0x00000707

100004e8 <main>:
100004e8:	b510      	push	{r4, lr}
100004ea:	f000 f813 	bl	10000514 <configure_uart>
100004ee:	f000 f8cf 	bl	10000690 <configure_gpio>
100004f2:	f7ff ff07 	bl	10000304 <configure_pio>
100004f6:	f000 f8f3 	bl	100006e0 <configure_dma>
100004fa:	4b05      	ldr	r3, [pc, #20]	; (10000510 <main+0x28>)
100004fc:	2200      	movs	r2, #0
100004fe:	601a      	str	r2, [r3, #0]
10000500:	001c      	movs	r4, r3
10000502:	6820      	ldr	r0, [r4, #0]
10000504:	f000 fafa 	bl	10000afc <fill_vga_data_array>
10000508:	6823      	ldr	r3, [r4, #0]
1000050a:	3301      	adds	r3, #1
1000050c:	6023      	str	r3, [r4, #0]
1000050e:	e7f8      	b.n	10000502 <main+0x1a>
10000510:	20000494 	.word	0x20000494

10000514 <configure_uart>:
10000514:	b5f8      	push	{r3, r4, r5, r6, r7, lr}
10000516:	2102      	movs	r1, #2
10000518:	2000      	movs	r0, #0
1000051a:	f000 fb15 	bl	10000b48 <gpio_set_function>
1000051e:	2102      	movs	r1, #2
10000520:	2001      	movs	r0, #1
10000522:	f000 fb11 	bl	10000b48 <gpio_set_function>
10000526:	21e1      	movs	r1, #225	; 0xe1
10000528:	4c1e      	ldr	r4, [pc, #120]	; (100005a4 <configure_uart+0x90>)
1000052a:	0249      	lsls	r1, r1, #9
1000052c:	0020      	movs	r0, r4
1000052e:	f001 fc19 	bl	10001d64 <uart_set_baudrate>
10000532:	6b23      	ldr	r3, [r4, #48]	; 0x30
10000534:	22c0      	movs	r2, #192	; 0xc0
10000536:	0212      	lsls	r2, r2, #8
10000538:	4013      	ands	r3, r2
1000053a:	4a1b      	ldr	r2, [pc, #108]	; (100005a8 <configure_uart+0x94>)
1000053c:	6013      	str	r3, [r2, #0]
1000053e:	6ae3      	ldr	r3, [r4, #44]	; 0x2c
10000540:	2260      	movs	r2, #96	; 0x60
10000542:	405a      	eors	r2, r3
10000544:	236e      	movs	r3, #110	; 0x6e
10000546:	4013      	ands	r3, r2
10000548:	4a18      	ldr	r2, [pc, #96]	; (100005ac <configure_uart+0x98>)
1000054a:	6013      	str	r3, [r2, #0]
1000054c:	4b18      	ldr	r3, [pc, #96]	; (100005b0 <configure_uart+0x9c>)
1000054e:	6323      	str	r3, [r4, #48]	; 0x30
10000550:	6ae1      	ldr	r1, [r4, #44]	; 0x2c
10000552:	2310      	movs	r3, #16
10000554:	438b      	bics	r3, r1
10000556:	6013      	str	r3, [r2, #0]
10000558:	4c16      	ldr	r4, [pc, #88]	; (100005b4 <configure_uart+0xa0>)
1000055a:	200a      	movs	r0, #10
1000055c:	2100      	movs	r1, #0
1000055e:	4b11      	ldr	r3, [pc, #68]	; (100005a4 <configure_uart+0x90>)
10000560:	2220      	movs	r2, #32
10000562:	4e15      	ldr	r6, [pc, #84]	; (100005b8 <configure_uart+0xa4>)
10000564:	250d      	movs	r5, #13
10000566:	e015      	b.n	10000594 <configure_uart+0x80>
10000568:	6999      	ldr	r1, [r3, #24]
1000056a:	420a      	tst	r2, r1
1000056c:	d1fc      	bne.n	10000568 <configure_uart+0x54>
1000056e:	6018      	str	r0, [r3, #0]
10000570:	e007      	b.n	10000582 <configure_uart+0x6e>
10000572:	6999      	ldr	r1, [r3, #24]
10000574:	420a      	tst	r2, r1
10000576:	d1fc      	bne.n	10000572 <configure_uart+0x5e>
10000578:	601d      	str	r5, [r3, #0]
1000057a:	6999      	ldr	r1, [r3, #24]
1000057c:	420a      	tst	r2, r1
1000057e:	d1fc      	bne.n	1000057a <configure_uart+0x66>
10000580:	6018      	str	r0, [r3, #0]
10000582:	7821      	ldrb	r1, [r4, #0]
10000584:	390d      	subs	r1, #13
10000586:	4248      	negs	r0, r1
10000588:	4141      	adcs	r1, r0
1000058a:	b2c9      	uxtb	r1, r1
1000058c:	3401      	adds	r4, #1
1000058e:	7820      	ldrb	r0, [r4, #0]
10000590:	2800      	cmp	r0, #0
10000592:	d006      	beq.n	100005a2 <configure_uart+0x8e>
10000594:	2900      	cmp	r1, #0
10000596:	d1e7      	bne.n	10000568 <configure_uart+0x54>
10000598:	2700      	movs	r7, #0
1000059a:	5ff1      	ldrsh	r1, [r6, r7]
1000059c:	4281      	cmp	r1, r0
1000059e:	d1ec      	bne.n	1000057a <configure_uart+0x66>
100005a0:	e7e7      	b.n	10000572 <configure_uart+0x5e>
100005a2:	bdf8      	pop	{r3, r4, r5, r6, r7, pc}
100005a4:	40034000 	.word	0x40034000
100005a8:	40035030 	.word	0x40035030
100005ac:	4003502c 	.word	0x4003502c
100005b0:	00000301 	.word	0x00000301
100005b4:	10002e04 	.word	0x10002e04
100005b8:	200006d0 	.word	0x200006d0

100005bc <change_color_param>:
100005bc:	b510      	push	{r4, lr}
100005be:	2810      	cmp	r0, #16
100005c0:	d002      	beq.n	100005c8 <change_color_param+0xc>
100005c2:	2811      	cmp	r0, #17
100005c4:	d027      	beq.n	10000616 <change_color_param+0x5a>
100005c6:	bd10      	pop	{r4, pc}
100005c8:	23d0      	movs	r3, #208	; 0xd0
100005ca:	061b      	lsls	r3, r3, #24
100005cc:	685b      	ldr	r3, [r3, #4]
100005ce:	039b      	lsls	r3, r3, #14
100005d0:	d519      	bpl.n	10000606 <change_color_param+0x4a>
100005d2:	4c26      	ldr	r4, [pc, #152]	; (1000066c <change_color_param+0xb0>)
100005d4:	6823      	ldr	r3, [r4, #0]
100005d6:	1c58      	adds	r0, r3, #1
100005d8:	2103      	movs	r1, #3
100005da:	f001 fe5f 	bl	1000229c <__wrap___aeabi_idiv>
100005de:	6021      	str	r1, [r4, #0]
100005e0:	2900      	cmp	r1, #0
100005e2:	d10a      	bne.n	100005fa <change_color_param+0x3e>
100005e4:	23d0      	movs	r3, #208	; 0xd0
100005e6:	061b      	lsls	r3, r3, #24
100005e8:	2280      	movs	r2, #128	; 0x80
100005ea:	0492      	lsls	r2, r2, #18
100005ec:	615a      	str	r2, [r3, #20]
100005ee:	0089      	lsls	r1, r1, #2
100005f0:	4b1f      	ldr	r3, [pc, #124]	; (10000670 <change_color_param+0xb4>)
100005f2:	58ca      	ldr	r2, [r1, r3]
100005f4:	4b1f      	ldr	r3, [pc, #124]	; (10000674 <change_color_param+0xb8>)
100005f6:	601a      	str	r2, [r3, #0]
100005f8:	e7e5      	b.n	100005c6 <change_color_param+0xa>
100005fa:	23d0      	movs	r3, #208	; 0xd0
100005fc:	061b      	lsls	r3, r3, #24
100005fe:	2280      	movs	r2, #128	; 0x80
10000600:	0492      	lsls	r2, r2, #18
10000602:	619a      	str	r2, [r3, #24]
10000604:	e7f3      	b.n	100005ee <change_color_param+0x32>
10000606:	4c1c      	ldr	r4, [pc, #112]	; (10000678 <change_color_param+0xbc>)
10000608:	6823      	ldr	r3, [r4, #0]
1000060a:	1c58      	adds	r0, r3, #1
1000060c:	2128      	movs	r1, #40	; 0x28
1000060e:	f001 fe45 	bl	1000229c <__wrap___aeabi_idiv>
10000612:	6021      	str	r1, [r4, #0]
10000614:	e7d7      	b.n	100005c6 <change_color_param+0xa>
10000616:	23d0      	movs	r3, #208	; 0xd0
10000618:	061b      	lsls	r3, r3, #24
1000061a:	685b      	ldr	r3, [r3, #4]
1000061c:	03db      	lsls	r3, r3, #15
1000061e:	d519      	bpl.n	10000654 <change_color_param+0x98>
10000620:	4c12      	ldr	r4, [pc, #72]	; (1000066c <change_color_param+0xb0>)
10000622:	6823      	ldr	r3, [r4, #0]
10000624:	1c58      	adds	r0, r3, #1
10000626:	2103      	movs	r1, #3
10000628:	f001 fe38 	bl	1000229c <__wrap___aeabi_idiv>
1000062c:	6021      	str	r1, [r4, #0]
1000062e:	2900      	cmp	r1, #0
10000630:	d10a      	bne.n	10000648 <change_color_param+0x8c>
10000632:	23d0      	movs	r3, #208	; 0xd0
10000634:	061b      	lsls	r3, r3, #24
10000636:	2280      	movs	r2, #128	; 0x80
10000638:	0492      	lsls	r2, r2, #18
1000063a:	615a      	str	r2, [r3, #20]
1000063c:	0089      	lsls	r1, r1, #2
1000063e:	4b0c      	ldr	r3, [pc, #48]	; (10000670 <change_color_param+0xb4>)
10000640:	58ca      	ldr	r2, [r1, r3]
10000642:	4b0c      	ldr	r3, [pc, #48]	; (10000674 <change_color_param+0xb8>)
10000644:	601a      	str	r2, [r3, #0]
10000646:	e7be      	b.n	100005c6 <change_color_param+0xa>
10000648:	23d0      	movs	r3, #208	; 0xd0
1000064a:	061b      	lsls	r3, r3, #24
1000064c:	2280      	movs	r2, #128	; 0x80
1000064e:	0492      	lsls	r2, r2, #18
10000650:	619a      	str	r2, [r3, #24]
10000652:	e7f3      	b.n	1000063c <change_color_param+0x80>
10000654:	4809      	ldr	r0, [pc, #36]	; (1000067c <change_color_param+0xc0>)
10000656:	6803      	ldr	r3, [r0, #0]
10000658:	3301      	adds	r3, #1
1000065a:	17d9      	asrs	r1, r3, #31
1000065c:	0f49      	lsrs	r1, r1, #29
1000065e:	185b      	adds	r3, r3, r1
10000660:	2207      	movs	r2, #7
10000662:	4013      	ands	r3, r2
10000664:	1a5b      	subs	r3, r3, r1
10000666:	6003      	str	r3, [r0, #0]
10000668:	e7ad      	b.n	100005c6 <change_color_param+0xa>
1000066a:	46c0      	nop			; (mov r8, r8)
1000066c:	2000041c 	.word	0x2000041c
10000670:	200001ec 	.word	0x200001ec
10000674:	20000200 	.word	0x20000200
10000678:	20000420 	.word	0x20000420
1000067c:	200006d4 	.word	0x200006d4

10000680 <on_button>:
10000680:	b510      	push	{r4, lr}
10000682:	2904      	cmp	r1, #4
10000684:	d000      	beq.n	10000688 <on_button+0x8>
10000686:	bd10      	pop	{r4, pc}
10000688:	f7ff ff98 	bl	100005bc <change_color_param>
1000068c:	e7fb      	b.n	10000686 <on_button+0x6>
	...

10000690 <configure_gpio>:
10000690:	b570      	push	{r4, r5, r6, lr}
10000692:	2019      	movs	r0, #25
10000694:	f000 fb48 	bl	10000d28 <gpio_init>
10000698:	24d0      	movs	r4, #208	; 0xd0
1000069a:	0624      	lsls	r4, r4, #24
1000069c:	2580      	movs	r5, #128	; 0x80
1000069e:	04ad      	lsls	r5, r5, #18
100006a0:	6265      	str	r5, [r4, #36]	; 0x24
100006a2:	2010      	movs	r0, #16
100006a4:	f000 fb40 	bl	10000d28 <gpio_init>
100006a8:	2200      	movs	r2, #0
100006aa:	2101      	movs	r1, #1
100006ac:	2010      	movs	r0, #16
100006ae:	f000 fa63 	bl	10000b78 <gpio_set_pulls>
100006b2:	2011      	movs	r0, #17
100006b4:	f000 fb38 	bl	10000d28 <gpio_init>
100006b8:	2200      	movs	r2, #0
100006ba:	2101      	movs	r1, #1
100006bc:	2011      	movs	r0, #17
100006be:	f000 fa5b 	bl	10000b78 <gpio_set_pulls>
100006c2:	4b06      	ldr	r3, [pc, #24]	; (100006dc <configure_gpio+0x4c>)
100006c4:	2201      	movs	r2, #1
100006c6:	210c      	movs	r1, #12
100006c8:	2010      	movs	r0, #16
100006ca:	f000 fac3 	bl	10000c54 <gpio_set_irq_enabled_with_callback>
100006ce:	2201      	movs	r2, #1
100006d0:	210c      	movs	r1, #12
100006d2:	2011      	movs	r0, #17
100006d4:	f000 fa98 	bl	10000c08 <gpio_set_irq_enabled>
100006d8:	6165      	str	r5, [r4, #20]
100006da:	bd70      	pop	{r4, r5, r6, pc}
100006dc:	10000681 	.word	0x10000681

100006e0 <configure_dma>:
100006e0:	4b0c      	ldr	r3, [pc, #48]	; (10000714 <configure_dma+0x34>)
100006e2:	681a      	ldr	r2, [r3, #0]
100006e4:	3218      	adds	r2, #24
100006e6:	23a0      	movs	r3, #160	; 0xa0
100006e8:	05db      	lsls	r3, r3, #23
100006ea:	490b      	ldr	r1, [pc, #44]	; (10000718 <configure_dma+0x38>)
100006ec:	6019      	str	r1, [r3, #0]
100006ee:	605a      	str	r2, [r3, #4]
100006f0:	2296      	movs	r2, #150	; 0x96
100006f2:	0292      	lsls	r2, r2, #10
100006f4:	609a      	str	r2, [r3, #8]
100006f6:	4a09      	ldr	r2, [pc, #36]	; (1000071c <configure_dma+0x3c>)
100006f8:	611a      	str	r2, [r3, #16]
100006fa:	4a09      	ldr	r2, [pc, #36]	; (10000720 <configure_dma+0x40>)
100006fc:	4909      	ldr	r1, [pc, #36]	; (10000724 <configure_dma+0x44>)
100006fe:	6011      	str	r1, [r2, #0]
10000700:	6053      	str	r3, [r2, #4]
10000702:	2101      	movs	r1, #1
10000704:	6091      	str	r1, [r2, #8]
10000706:	4808      	ldr	r0, [pc, #32]	; (10000728 <configure_dma+0x48>)
10000708:	6110      	str	r0, [r2, #16]
1000070a:	2286      	movs	r2, #134	; 0x86
1000070c:	00d2      	lsls	r2, r2, #3
1000070e:	5099      	str	r1, [r3, r2]
10000710:	4770      	bx	lr
10000712:	46c0      	nop			; (mov r8, r8)
10000714:	200001e8 	.word	0x200001e8
10000718:	200006d8 	.word	0x200006d8
1000071c:	00010811 	.word	0x00010811
10000720:	50000040 	.word	0x50000040
10000724:	20000224 	.word	0x20000224
10000728:	001f8009 	.word	0x001f8009

1000072c <draw_function_0>:
1000072c:	b5f0      	push	{r4, r5, r6, r7, lr}
1000072e:	46d6      	mov	lr, sl
10000730:	464f      	mov	r7, r9
10000732:	4646      	mov	r6, r8
10000734:	b5c0      	push	{r6, r7, lr}
10000736:	4c18      	ldr	r4, [pc, #96]	; (10000798 <draw_function_0+0x6c>)
10000738:	2396      	movs	r3, #150	; 0x96
1000073a:	029b      	lsls	r3, r3, #10
1000073c:	469a      	mov	sl, r3
1000073e:	44a2      	add	sl, r4
10000740:	2300      	movs	r3, #0
10000742:	4699      	mov	r9, r3
10000744:	4b15      	ldr	r3, [pc, #84]	; (1000079c <draw_function_0+0x70>)
10000746:	4698      	mov	r8, r3
10000748:	270f      	movs	r7, #15
1000074a:	2601      	movs	r6, #1
1000074c:	25a0      	movs	r5, #160	; 0xa0
1000074e:	006d      	lsls	r5, r5, #1
10000750:	2118      	movs	r1, #24
10000752:	4648      	mov	r0, r9
10000754:	f001 fda2 	bl	1000229c <__wrap___aeabi_idiv>
10000758:	2200      	movs	r2, #0
1000075a:	17d3      	asrs	r3, r2, #31
1000075c:	403b      	ands	r3, r7
1000075e:	189b      	adds	r3, r3, r2
10000760:	111b      	asrs	r3, r3, #4
10000762:	4043      	eors	r3, r0
10000764:	0fd9      	lsrs	r1, r3, #31
10000766:	185b      	adds	r3, r3, r1
10000768:	4033      	ands	r3, r6
1000076a:	1a5b      	subs	r3, r3, r1
1000076c:	009b      	lsls	r3, r3, #2
1000076e:	4641      	mov	r1, r8
10000770:	585b      	ldr	r3, [r3, r1]
10000772:	54a3      	strb	r3, [r4, r2]
10000774:	3201      	adds	r2, #1
10000776:	42aa      	cmp	r2, r5
10000778:	d1ef      	bne.n	1000075a <draw_function_0+0x2e>
1000077a:	2301      	movs	r3, #1
1000077c:	469c      	mov	ip, r3
1000077e:	44e1      	add	r9, ip
10000780:	3441      	adds	r4, #65	; 0x41
10000782:	34ff      	adds	r4, #255	; 0xff
10000784:	4554      	cmp	r4, sl
10000786:	d1e3      	bne.n	10000750 <draw_function_0+0x24>
10000788:	4b05      	ldr	r3, [pc, #20]	; (100007a0 <draw_function_0+0x74>)
1000078a:	4a06      	ldr	r2, [pc, #24]	; (100007a4 <draw_function_0+0x78>)
1000078c:	601a      	str	r2, [r3, #0]
1000078e:	bce0      	pop	{r5, r6, r7}
10000790:	46ba      	mov	sl, r7
10000792:	46b1      	mov	r9, r6
10000794:	46a8      	mov	r8, r5
10000796:	bdf0      	pop	{r4, r5, r6, r7, pc}
10000798:	200006d8 	.word	0x200006d8
1000079c:	200001f8 	.word	0x200001f8
100007a0:	200004ac 	.word	0x200004ac
100007a4:	000257ff 	.word	0x000257ff

100007a8 <draw_function_1>:
100007a8:	b5f0      	push	{r4, r5, r6, r7, lr}
100007aa:	4e1b      	ldr	r6, [pc, #108]	; (10000818 <draw_function_1+0x70>)
100007ac:	0030      	movs	r0, r6
100007ae:	3041      	adds	r0, #65	; 0x41
100007b0:	30ff      	adds	r0, #255	; 0xff
100007b2:	2396      	movs	r3, #150	; 0x96
100007b4:	029b      	lsls	r3, r3, #10
100007b6:	469c      	mov	ip, r3
100007b8:	44b4      	add	ip, r6
100007ba:	2100      	movs	r1, #0
100007bc:	2300      	movs	r3, #0
100007be:	2600      	movs	r6, #0
100007c0:	2507      	movs	r5, #7
100007c2:	4c16      	ldr	r4, [pc, #88]	; (1000081c <draw_function_1+0x74>)
100007c4:	e01e      	b.n	10000804 <draw_function_1+0x5c>
100007c6:	3303      	adds	r3, #3
100007c8:	17da      	asrs	r2, r3, #31
100007ca:	0f52      	lsrs	r2, r2, #29
100007cc:	189b      	adds	r3, r3, r2
100007ce:	402b      	ands	r3, r5
100007d0:	1a9b      	subs	r3, r3, r2
100007d2:	2600      	movs	r6, #0
100007d4:	e014      	b.n	10000800 <draw_function_1+0x58>
100007d6:	3101      	adds	r1, #1
100007d8:	009f      	lsls	r7, r3, #2
100007da:	593f      	ldr	r7, [r7, r4]
100007dc:	7017      	strb	r7, [r2, #0]
100007de:	3201      	adds	r2, #1
100007e0:	4290      	cmp	r0, r2
100007e2:	d009      	beq.n	100007f8 <draw_function_1+0x50>
100007e4:	2914      	cmp	r1, #20
100007e6:	d1f6      	bne.n	100007d6 <draw_function_1+0x2e>
100007e8:	3301      	adds	r3, #1
100007ea:	17d9      	asrs	r1, r3, #31
100007ec:	0f49      	lsrs	r1, r1, #29
100007ee:	185b      	adds	r3, r3, r1
100007f0:	402b      	ands	r3, r5
100007f2:	1a5b      	subs	r3, r3, r1
100007f4:	2100      	movs	r1, #0
100007f6:	e7ee      	b.n	100007d6 <draw_function_1+0x2e>
100007f8:	4584      	cmp	ip, r0
100007fa:	d008      	beq.n	1000080e <draw_function_1+0x66>
100007fc:	2e1e      	cmp	r6, #30
100007fe:	d0e2      	beq.n	100007c6 <draw_function_1+0x1e>
10000800:	3041      	adds	r0, #65	; 0x41
10000802:	30ff      	adds	r0, #255	; 0xff
10000804:	3601      	adds	r6, #1
10000806:	0002      	movs	r2, r0
10000808:	3a41      	subs	r2, #65	; 0x41
1000080a:	3aff      	subs	r2, #255	; 0xff
1000080c:	e7ea      	b.n	100007e4 <draw_function_1+0x3c>
1000080e:	4b04      	ldr	r3, [pc, #16]	; (10000820 <draw_function_1+0x78>)
10000810:	4a04      	ldr	r2, [pc, #16]	; (10000824 <draw_function_1+0x7c>)
10000812:	601a      	str	r2, [r3, #0]
10000814:	bdf0      	pop	{r4, r5, r6, r7, pc}
10000816:	46c0      	nop			; (mov r8, r8)
10000818:	200006d8 	.word	0x200006d8
1000081c:	20000204 	.word	0x20000204
10000820:	200004ac 	.word	0x200004ac
10000824:	000257ff 	.word	0x000257ff

10000828 <draw_function_2>:
10000828:	b5f0      	push	{r4, r5, r6, r7, lr}
1000082a:	46c6      	mov	lr, r8
1000082c:	b500      	push	{lr}
1000082e:	4e14      	ldr	r6, [pc, #80]	; (10000880 <draw_function_2+0x58>)
10000830:	0034      	movs	r4, r6
10000832:	3441      	adds	r4, #65	; 0x41
10000834:	34ff      	adds	r4, #255	; 0xff
10000836:	4b13      	ldr	r3, [pc, #76]	; (10000884 <draw_function_2+0x5c>)
10000838:	469c      	mov	ip, r3
1000083a:	4466      	add	r6, ip
1000083c:	2500      	movs	r5, #0
1000083e:	4b12      	ldr	r3, [pc, #72]	; (10000888 <draw_function_2+0x60>)
10000840:	4698      	mov	r8, r3
10000842:	2707      	movs	r7, #7
10000844:	213c      	movs	r1, #60	; 0x3c
10000846:	0028      	movs	r0, r5
10000848:	f001 fd28 	bl	1000229c <__wrap___aeabi_idiv>
1000084c:	17c3      	asrs	r3, r0, #31
1000084e:	0f5b      	lsrs	r3, r3, #29
10000850:	18c0      	adds	r0, r0, r3
10000852:	4038      	ands	r0, r7
10000854:	1ac3      	subs	r3, r0, r3
10000856:	009b      	lsls	r3, r3, #2
10000858:	4642      	mov	r2, r8
1000085a:	5cd2      	ldrb	r2, [r2, r3]
1000085c:	0023      	movs	r3, r4
1000085e:	3b41      	subs	r3, #65	; 0x41
10000860:	3bff      	subs	r3, #255	; 0xff
10000862:	701a      	strb	r2, [r3, #0]
10000864:	3301      	adds	r3, #1
10000866:	42a3      	cmp	r3, r4
10000868:	d1fb      	bne.n	10000862 <draw_function_2+0x3a>
1000086a:	3501      	adds	r5, #1
1000086c:	3441      	adds	r4, #65	; 0x41
1000086e:	34ff      	adds	r4, #255	; 0xff
10000870:	42b4      	cmp	r4, r6
10000872:	d1e7      	bne.n	10000844 <draw_function_2+0x1c>
10000874:	4b05      	ldr	r3, [pc, #20]	; (1000088c <draw_function_2+0x64>)
10000876:	4a06      	ldr	r2, [pc, #24]	; (10000890 <draw_function_2+0x68>)
10000878:	601a      	str	r2, [r3, #0]
1000087a:	bc80      	pop	{r7}
1000087c:	46b8      	mov	r8, r7
1000087e:	bdf0      	pop	{r4, r5, r6, r7, pc}
10000880:	200006d8 	.word	0x200006d8
10000884:	00025940 	.word	0x00025940
10000888:	20000204 	.word	0x20000204
1000088c:	200004ac 	.word	0x200004ac
10000890:	000257ff 	.word	0x000257ff

10000894 <draw_function_3>:
10000894:	b5f0      	push	{r4, r5, r6, r7, lr}
10000896:	46de      	mov	lr, fp
10000898:	4657      	mov	r7, sl
1000089a:	464e      	mov	r6, r9
1000089c:	4645      	mov	r5, r8
1000089e:	b5e0      	push	{r5, r6, r7, lr}
100008a0:	b083      	sub	sp, #12
100008a2:	4b3d      	ldr	r3, [pc, #244]	; (10000998 <draw_function_3+0x104>)
100008a4:	2200      	movs	r2, #0
100008a6:	601a      	str	r2, [r3, #0]
100008a8:	4b3c      	ldr	r3, [pc, #240]	; (1000099c <draw_function_3+0x108>)
100008aa:	685b      	ldr	r3, [r3, #4]
100008ac:	9301      	str	r3, [sp, #4]
100008ae:	b2db      	uxtb	r3, r3
100008b0:	4698      	mov	r8, r3
100008b2:	483b      	ldr	r0, [pc, #236]	; (100009a0 <draw_function_3+0x10c>)
100008b4:	25e7      	movs	r5, #231	; 0xe7
100008b6:	426d      	negs	r5, r5
100008b8:	2451      	movs	r4, #81	; 0x51
100008ba:	4264      	negs	r4, r4
100008bc:	21c9      	movs	r1, #201	; 0xc9
100008be:	4249      	negs	r1, r1
100008c0:	2300      	movs	r3, #0
100008c2:	469a      	mov	sl, r3
100008c4:	331f      	adds	r3, #31
100008c6:	469b      	mov	fp, r3
100008c8:	e03b      	b.n	10000942 <draw_function_3+0xae>
100008ca:	001a      	movs	r2, r3
100008cc:	3a9d      	subs	r2, #157	; 0x9d
100008ce:	2a08      	cmp	r2, #8
100008d0:	d801      	bhi.n	100008d6 <draw_function_3+0x42>
100008d2:	9a01      	ldr	r2, [sp, #4]
100008d4:	e014      	b.n	10000900 <draw_function_3+0x6c>
100008d6:	001a      	movs	r2, r3
100008d8:	3a8e      	subs	r2, #142	; 0x8e
100008da:	2a26      	cmp	r2, #38	; 0x26
100008dc:	d81a      	bhi.n	10000914 <draw_function_3+0x80>
100008de:	17fa      	asrs	r2, r7, #31
100008e0:	465e      	mov	r6, fp
100008e2:	4032      	ands	r2, r6
100008e4:	19d2      	adds	r2, r2, r7
100008e6:	1152      	asrs	r2, r2, #5
100008e8:	3201      	adds	r2, #1
100008ea:	4e2e      	ldr	r6, [pc, #184]	; (100009a4 <draw_function_3+0x110>)
100008ec:	4032      	ands	r2, r6
100008ee:	d504      	bpl.n	100008fa <draw_function_3+0x66>
100008f0:	3a01      	subs	r2, #1
100008f2:	2608      	movs	r6, #8
100008f4:	4276      	negs	r6, r6
100008f6:	4332      	orrs	r2, r6
100008f8:	3201      	adds	r2, #1
100008fa:	0092      	lsls	r2, r2, #2
100008fc:	4e2a      	ldr	r6, [pc, #168]	; (100009a8 <draw_function_3+0x114>)
100008fe:	5992      	ldr	r2, [r2, r6]
10000900:	54c2      	strb	r2, [r0, r3]
10000902:	3301      	adds	r3, #1
10000904:	1e5f      	subs	r7, r3, #1
10000906:	4662      	mov	r2, ip
10000908:	2a12      	cmp	r2, #18
1000090a:	d9de      	bls.n	100008ca <draw_function_3+0x36>
1000090c:	229f      	movs	r2, #159	; 0x9f
1000090e:	0052      	lsls	r2, r2, #1
10000910:	4295      	cmp	r5, r2
10000912:	d9e0      	bls.n	100008d6 <draw_function_3+0x42>
10000914:	2c4e      	cmp	r4, #78	; 0x4e
10000916:	d92d      	bls.n	10000974 <draw_function_3+0xe0>
10000918:	4642      	mov	r2, r8
1000091a:	18d2      	adds	r2, r2, r3
1000091c:	54c1      	strb	r1, [r0, r3]
1000091e:	26a0      	movs	r6, #160	; 0xa0
10000920:	0076      	lsls	r6, r6, #1
10000922:	42b3      	cmp	r3, r6
10000924:	dbed      	blt.n	10000902 <draw_function_3+0x6e>
10000926:	4688      	mov	r8, r1
10000928:	0021      	movs	r1, r4
1000092a:	002c      	movs	r4, r5
1000092c:	4665      	mov	r5, ip
1000092e:	46b4      	mov	ip, r6
10000930:	44e2      	add	sl, ip
10000932:	1980      	adds	r0, r0, r6
10000934:	3101      	adds	r1, #1
10000936:	3401      	adds	r4, #1
10000938:	3501      	adds	r5, #1
1000093a:	2318      	movs	r3, #24
1000093c:	33ff      	adds	r3, #255	; 0xff
1000093e:	4299      	cmp	r1, r3
10000940:	d020      	beq.n	10000984 <draw_function_3+0xf0>
10000942:	000a      	movs	r2, r1
10000944:	32c9      	adds	r2, #201	; 0xc9
10000946:	17d3      	asrs	r3, r2, #31
10000948:	465e      	mov	r6, fp
1000094a:	4033      	ands	r3, r6
1000094c:	189b      	adds	r3, r3, r2
1000094e:	115b      	asrs	r3, r3, #5
10000950:	3303      	adds	r3, #3
10000952:	17de      	asrs	r6, r3, #31
10000954:	0f76      	lsrs	r6, r6, #29
10000956:	199b      	adds	r3, r3, r6
10000958:	2207      	movs	r2, #7
1000095a:	401a      	ands	r2, r3
1000095c:	1b92      	subs	r2, r2, r6
1000095e:	2301      	movs	r3, #1
10000960:	4656      	mov	r6, sl
10000962:	1e77      	subs	r7, r6, #1
10000964:	0092      	lsls	r2, r2, #2
10000966:	4691      	mov	r9, r2
10000968:	46ac      	mov	ip, r5
1000096a:	0025      	movs	r5, r4
1000096c:	000c      	movs	r4, r1
1000096e:	4641      	mov	r1, r8
10000970:	46b8      	mov	r8, r7
10000972:	e7c7      	b.n	10000904 <draw_function_3+0x70>
10000974:	001a      	movs	r2, r3
10000976:	3a2a      	subs	r2, #42	; 0x2a
10000978:	2aee      	cmp	r2, #238	; 0xee
1000097a:	d8cd      	bhi.n	10000918 <draw_function_3+0x84>
1000097c:	4a0a      	ldr	r2, [pc, #40]	; (100009a8 <draw_function_3+0x114>)
1000097e:	464e      	mov	r6, r9
10000980:	58b2      	ldr	r2, [r6, r2]
10000982:	e7bd      	b.n	10000900 <draw_function_3+0x6c>
10000984:	4b04      	ldr	r3, [pc, #16]	; (10000998 <draw_function_3+0x104>)
10000986:	601a      	str	r2, [r3, #0]
10000988:	b003      	add	sp, #12
1000098a:	bcf0      	pop	{r4, r5, r6, r7}
1000098c:	46bb      	mov	fp, r7
1000098e:	46b2      	mov	sl, r6
10000990:	46a9      	mov	r9, r5
10000992:	46a0      	mov	r8, r4
10000994:	bdf0      	pop	{r4, r5, r6, r7, pc}
10000996:	46c0      	nop			; (mov r8, r8)
10000998:	200004ac 	.word	0x200004ac
1000099c:	200001f8 	.word	0x200001f8
100009a0:	200006d7 	.word	0x200006d7
100009a4:	80000007 	.word	0x80000007
100009a8:	20000204 	.word	0x20000204

100009ac <draw_function_4>:
100009ac:	b570      	push	{r4, r5, r6, lr}
100009ae:	0004      	movs	r4, r0
100009b0:	490c      	ldr	r1, [pc, #48]	; (100009e4 <draw_function_4+0x38>)
100009b2:	2396      	movs	r3, #150	; 0x96
100009b4:	029b      	lsls	r3, r3, #10
100009b6:	18ce      	adds	r6, r1, r3
100009b8:	2000      	movs	r0, #0
100009ba:	25a0      	movs	r5, #160	; 0xa0
100009bc:	006d      	lsls	r5, r5, #1
100009be:	2200      	movs	r2, #0
100009c0:	0053      	lsls	r3, r2, #1
100009c2:	4043      	eors	r3, r0
100009c4:	43db      	mvns	r3, r3
100009c6:	4363      	muls	r3, r4
100009c8:	141b      	asrs	r3, r3, #16
100009ca:	548b      	strb	r3, [r1, r2]
100009cc:	3201      	adds	r2, #1
100009ce:	42aa      	cmp	r2, r5
100009d0:	d1f6      	bne.n	100009c0 <draw_function_4+0x14>
100009d2:	3001      	adds	r0, #1
100009d4:	3141      	adds	r1, #65	; 0x41
100009d6:	31ff      	adds	r1, #255	; 0xff
100009d8:	42b1      	cmp	r1, r6
100009da:	d1f0      	bne.n	100009be <draw_function_4+0x12>
100009dc:	4b02      	ldr	r3, [pc, #8]	; (100009e8 <draw_function_4+0x3c>)
100009de:	4a03      	ldr	r2, [pc, #12]	; (100009ec <draw_function_4+0x40>)
100009e0:	601a      	str	r2, [r3, #0]
100009e2:	bd70      	pop	{r4, r5, r6, pc}
100009e4:	200006d8 	.word	0x200006d8
100009e8:	200004ac 	.word	0x200004ac
100009ec:	000257ff 	.word	0x000257ff

100009f0 <draw_function_5>:
100009f0:	b5f0      	push	{r4, r5, r6, r7, lr}
100009f2:	4b0f      	ldr	r3, [pc, #60]	; (10000a30 <draw_function_5+0x40>)
100009f4:	681d      	ldr	r5, [r3, #0]
100009f6:	490f      	ldr	r1, [pc, #60]	; (10000a34 <draw_function_5+0x44>)
100009f8:	2396      	movs	r3, #150	; 0x96
100009fa:	029b      	lsls	r3, r3, #10
100009fc:	469c      	mov	ip, r3
100009fe:	448c      	add	ip, r1
10000a00:	2600      	movs	r6, #0
10000a02:	43c4      	mvns	r4, r0
10000a04:	27a0      	movs	r7, #160	; 0xa0
10000a06:	007f      	lsls	r7, r7, #1
10000a08:	0030      	movs	r0, r6
10000a0a:	2200      	movs	r2, #0
10000a0c:	0213      	lsls	r3, r2, #8
10000a0e:	1a9b      	subs	r3, r3, r2
10000a10:	4043      	eors	r3, r0
10000a12:	4363      	muls	r3, r4
10000a14:	412b      	asrs	r3, r5
10000a16:	548b      	strb	r3, [r1, r2]
10000a18:	3201      	adds	r2, #1
10000a1a:	42ba      	cmp	r2, r7
10000a1c:	d1f6      	bne.n	10000a0c <draw_function_5+0x1c>
10000a1e:	36ff      	adds	r6, #255	; 0xff
10000a20:	3141      	adds	r1, #65	; 0x41
10000a22:	31ff      	adds	r1, #255	; 0xff
10000a24:	4561      	cmp	r1, ip
10000a26:	d1ef      	bne.n	10000a08 <draw_function_5+0x18>
10000a28:	4b03      	ldr	r3, [pc, #12]	; (10000a38 <draw_function_5+0x48>)
10000a2a:	4a04      	ldr	r2, [pc, #16]	; (10000a3c <draw_function_5+0x4c>)
10000a2c:	601a      	str	r2, [r3, #0]
10000a2e:	bdf0      	pop	{r4, r5, r6, r7, pc}
10000a30:	20000420 	.word	0x20000420
10000a34:	200006d8 	.word	0x200006d8
10000a38:	200004ac 	.word	0x200004ac
10000a3c:	000257ff 	.word	0x000257ff

10000a40 <draw_function_6>:
10000a40:	b5f8      	push	{r3, r4, r5, r6, r7, lr}
10000a42:	46de      	mov	lr, fp
10000a44:	4657      	mov	r7, sl
10000a46:	464e      	mov	r6, r9
10000a48:	4645      	mov	r5, r8
10000a4a:	b5e0      	push	{r5, r6, r7, lr}
10000a4c:	0006      	movs	r6, r0
10000a4e:	4b13      	ldr	r3, [pc, #76]	; (10000a9c <draw_function_6+0x5c>)
10000a50:	2200      	movs	r2, #0
10000a52:	601a      	str	r2, [r3, #0]
10000a54:	4b12      	ldr	r3, [pc, #72]	; (10000aa0 <draw_function_6+0x60>)
10000a56:	681b      	ldr	r3, [r3, #0]
10000a58:	469b      	mov	fp, r3
10000a5a:	2400      	movs	r4, #0
10000a5c:	23a0      	movs	r3, #160	; 0xa0
10000a5e:	05db      	lsls	r3, r3, #23
10000a60:	469a      	mov	sl, r3
10000a62:	4b10      	ldr	r3, [pc, #64]	; (10000aa4 <draw_function_6+0x64>)
10000a64:	4699      	mov	r9, r3
10000a66:	23c8      	movs	r3, #200	; 0xc8
10000a68:	009b      	lsls	r3, r3, #2
10000a6a:	4698      	mov	r8, r3
10000a6c:	2796      	movs	r7, #150	; 0x96
10000a6e:	02bf      	lsls	r7, r7, #10
10000a70:	4653      	mov	r3, sl
10000a72:	6818      	ldr	r0, [r3, #0]
10000a74:	464b      	mov	r3, r9
10000a76:	18e5      	adds	r5, r4, r3
10000a78:	4360      	muls	r0, r4
10000a7a:	4641      	mov	r1, r8
10000a7c:	f001 fc0e 	bl	1000229c <__wrap___aeabi_idiv>
10000a80:	4370      	muls	r0, r6
10000a82:	465b      	mov	r3, fp
10000a84:	4118      	asrs	r0, r3
10000a86:	7028      	strb	r0, [r5, #0]
10000a88:	3401      	adds	r4, #1
10000a8a:	42bc      	cmp	r4, r7
10000a8c:	d1f0      	bne.n	10000a70 <draw_function_6+0x30>
10000a8e:	bcf0      	pop	{r4, r5, r6, r7}
10000a90:	46bb      	mov	fp, r7
10000a92:	46b2      	mov	sl, r6
10000a94:	46a9      	mov	r9, r5
10000a96:	46a0      	mov	r8, r4
10000a98:	bdf8      	pop	{r3, r4, r5, r6, r7, pc}
10000a9a:	46c0      	nop			; (mov r8, r8)
10000a9c:	200004ac 	.word	0x200004ac
10000aa0:	20000420 	.word	0x20000420
10000aa4:	200006d8 	.word	0x200006d8

10000aa8 <draw_function_7>:
10000aa8:	b5f0      	push	{r4, r5, r6, r7, lr}
10000aaa:	4b0f      	ldr	r3, [pc, #60]	; (10000ae8 <draw_function_7+0x40>)
10000aac:	681d      	ldr	r5, [r3, #0]
10000aae:	4f0f      	ldr	r7, [pc, #60]	; (10000aec <draw_function_7+0x44>)
10000ab0:	0038      	movs	r0, r7
10000ab2:	3041      	adds	r0, #65	; 0x41
10000ab4:	30ff      	adds	r0, #255	; 0xff
10000ab6:	4b0e      	ldr	r3, [pc, #56]	; (10000af0 <draw_function_7+0x48>)
10000ab8:	469c      	mov	ip, r3
10000aba:	4467      	add	r7, ip
10000abc:	2600      	movs	r6, #0
10000abe:	0034      	movs	r4, r6
10000ac0:	0003      	movs	r3, r0
10000ac2:	3b41      	subs	r3, #65	; 0x41
10000ac4:	3bff      	subs	r3, #255	; 0xff
10000ac6:	2200      	movs	r2, #0
10000ac8:	0011      	movs	r1, r2
10000aca:	4129      	asrs	r1, r5
10000acc:	7019      	strb	r1, [r3, #0]
10000ace:	1912      	adds	r2, r2, r4
10000ad0:	3301      	adds	r3, #1
10000ad2:	4283      	cmp	r3, r0
10000ad4:	d1f8      	bne.n	10000ac8 <draw_function_7+0x20>
10000ad6:	3601      	adds	r6, #1
10000ad8:	3041      	adds	r0, #65	; 0x41
10000ada:	30ff      	adds	r0, #255	; 0xff
10000adc:	42b8      	cmp	r0, r7
10000ade:	d1ee      	bne.n	10000abe <draw_function_7+0x16>
10000ae0:	4b04      	ldr	r3, [pc, #16]	; (10000af4 <draw_function_7+0x4c>)
10000ae2:	4a05      	ldr	r2, [pc, #20]	; (10000af8 <draw_function_7+0x50>)
10000ae4:	601a      	str	r2, [r3, #0]
10000ae6:	bdf0      	pop	{r4, r5, r6, r7, pc}
10000ae8:	20000420 	.word	0x20000420
10000aec:	200006d8 	.word	0x200006d8
10000af0:	00025940 	.word	0x00025940
10000af4:	200004ac 	.word	0x200004ac
10000af8:	000257ff 	.word	0x000257ff

10000afc <fill_vga_data_array>:
10000afc:	b510      	push	{r4, lr}
10000afe:	4b10      	ldr	r3, [pc, #64]	; (10000b40 <fill_vga_data_array+0x44>)
10000b00:	681a      	ldr	r2, [r3, #0]
10000b02:	2a07      	cmp	r2, #7
10000b04:	d805      	bhi.n	10000b12 <fill_vga_data_array+0x16>
10000b06:	0093      	lsls	r3, r2, #2
10000b08:	4a0e      	ldr	r2, [pc, #56]	; (10000b44 <fill_vga_data_array+0x48>)
10000b0a:	58d3      	ldr	r3, [r2, r3]
10000b0c:	469f      	mov	pc, r3
10000b0e:	f7ff fe0d 	bl	1000072c <draw_function_0>
10000b12:	bd10      	pop	{r4, pc}
10000b14:	f7ff fe48 	bl	100007a8 <draw_function_1>
10000b18:	e7fb      	b.n	10000b12 <fill_vga_data_array+0x16>
10000b1a:	f7ff fe85 	bl	10000828 <draw_function_2>
10000b1e:	e7f8      	b.n	10000b12 <fill_vga_data_array+0x16>
10000b20:	f7ff feb8 	bl	10000894 <draw_function_3>
10000b24:	e7f5      	b.n	10000b12 <fill_vga_data_array+0x16>
10000b26:	f7ff ff41 	bl	100009ac <draw_function_4>
10000b2a:	e7f2      	b.n	10000b12 <fill_vga_data_array+0x16>
10000b2c:	f7ff ff60 	bl	100009f0 <draw_function_5>
10000b30:	e7ef      	b.n	10000b12 <fill_vga_data_array+0x16>
10000b32:	f7ff ff85 	bl	10000a40 <draw_function_6>
10000b36:	e7ec      	b.n	10000b12 <fill_vga_data_array+0x16>
10000b38:	f7ff ffb6 	bl	10000aa8 <draw_function_7>
10000b3c:	e7e9      	b.n	10000b12 <fill_vga_data_array+0x16>
10000b3e:	46c0      	nop			; (mov r8, r8)
10000b40:	200006d4 	.word	0x200006d4
10000b44:	10002e14 	.word	0x10002e14

10000b48 <gpio_set_function>:
10000b48:	b510      	push	{r4, lr}
10000b4a:	0083      	lsls	r3, r0, #2
10000b4c:	4a08      	ldr	r2, [pc, #32]	; (10000b70 <gpio_set_function+0x28>)
10000b4e:	4694      	mov	ip, r2
10000b50:	4463      	add	r3, ip
10000b52:	681c      	ldr	r4, [r3, #0]
10000b54:	2240      	movs	r2, #64	; 0x40
10000b56:	4062      	eors	r2, r4
10000b58:	24c0      	movs	r4, #192	; 0xc0
10000b5a:	4014      	ands	r4, r2
10000b5c:	2280      	movs	r2, #128	; 0x80
10000b5e:	0152      	lsls	r2, r2, #5
10000b60:	4313      	orrs	r3, r2
10000b62:	601c      	str	r4, [r3, #0]
10000b64:	00c0      	lsls	r0, r0, #3
10000b66:	4b03      	ldr	r3, [pc, #12]	; (10000b74 <gpio_set_function+0x2c>)
10000b68:	469c      	mov	ip, r3
10000b6a:	4460      	add	r0, ip
10000b6c:	6041      	str	r1, [r0, #4]
10000b6e:	bd10      	pop	{r4, pc}
10000b70:	4001c004 	.word	0x4001c004
10000b74:	40014000 	.word	0x40014000

10000b78 <gpio_set_pulls>:
10000b78:	0080      	lsls	r0, r0, #2
10000b7a:	4b09      	ldr	r3, [pc, #36]	; (10000ba0 <gpio_set_pulls+0x28>)
10000b7c:	469c      	mov	ip, r3
10000b7e:	4460      	add	r0, ip
10000b80:	1e4b      	subs	r3, r1, #1
10000b82:	4199      	sbcs	r1, r3
10000b84:	00c9      	lsls	r1, r1, #3
10000b86:	1e53      	subs	r3, r2, #1
10000b88:	419a      	sbcs	r2, r3
10000b8a:	0092      	lsls	r2, r2, #2
10000b8c:	6803      	ldr	r3, [r0, #0]
10000b8e:	4311      	orrs	r1, r2
10000b90:	4059      	eors	r1, r3
10000b92:	220c      	movs	r2, #12
10000b94:	4011      	ands	r1, r2
10000b96:	2380      	movs	r3, #128	; 0x80
10000b98:	015b      	lsls	r3, r3, #5
10000b9a:	4318      	orrs	r0, r3
10000b9c:	6001      	str	r1, [r0, #0]
10000b9e:	4770      	bx	lr
10000ba0:	4001c004 	.word	0x4001c004

10000ba4 <gpio_set_irq_callback>:
10000ba4:	b570      	push	{r4, r5, r6, lr}
10000ba6:	0004      	movs	r4, r0
10000ba8:	23d0      	movs	r3, #208	; 0xd0
10000baa:	061b      	lsls	r3, r3, #24
10000bac:	681d      	ldr	r5, [r3, #0]
10000bae:	00aa      	lsls	r2, r5, #2
10000bb0:	4b0c      	ldr	r3, [pc, #48]	; (10000be4 <gpio_set_irq_callback+0x40>)
10000bb2:	58d3      	ldr	r3, [r2, r3]
10000bb4:	2b00      	cmp	r3, #0
10000bb6:	d00a      	beq.n	10000bce <gpio_set_irq_callback+0x2a>
10000bb8:	2800      	cmp	r0, #0
10000bba:	d003      	beq.n	10000bc4 <gpio_set_irq_callback+0x20>
10000bbc:	00ad      	lsls	r5, r5, #2
10000bbe:	4b09      	ldr	r3, [pc, #36]	; (10000be4 <gpio_set_irq_callback+0x40>)
10000bc0:	50ec      	str	r4, [r5, r3]
10000bc2:	bd70      	pop	{r4, r5, r6, pc}
10000bc4:	4908      	ldr	r1, [pc, #32]	; (10000be8 <gpio_set_irq_callback+0x44>)
10000bc6:	200d      	movs	r0, #13
10000bc8:	f000 fa5e 	bl	10001088 <irq_remove_handler>
10000bcc:	e7f6      	b.n	10000bbc <gpio_set_irq_callback+0x18>
10000bce:	2800      	cmp	r0, #0
10000bd0:	d0f7      	beq.n	10000bc2 <gpio_set_irq_callback+0x1e>
10000bd2:	00ad      	lsls	r5, r5, #2
10000bd4:	4b03      	ldr	r3, [pc, #12]	; (10000be4 <gpio_set_irq_callback+0x40>)
10000bd6:	50e8      	str	r0, [r5, r3]
10000bd8:	2200      	movs	r2, #0
10000bda:	4903      	ldr	r1, [pc, #12]	; (10000be8 <gpio_set_irq_callback+0x44>)
10000bdc:	200d      	movs	r0, #13
10000bde:	f000 f965 	bl	10000eac <irq_add_shared_handler>
10000be2:	e7ee      	b.n	10000bc2 <gpio_set_irq_callback+0x1e>
10000be4:	20000414 	.word	0x20000414
10000be8:	10000c75 	.word	0x10000c75

10000bec <gpio_acknowledge_irq>:
10000bec:	0002      	movs	r2, r0
10000bee:	08c3      	lsrs	r3, r0, #3
10000bf0:	2007      	movs	r0, #7
10000bf2:	4010      	ands	r0, r2
10000bf4:	0080      	lsls	r0, r0, #2
10000bf6:	4081      	lsls	r1, r0
10000bf8:	333c      	adds	r3, #60	; 0x3c
10000bfa:	009b      	lsls	r3, r3, #2
10000bfc:	4a01      	ldr	r2, [pc, #4]	; (10000c04 <gpio_acknowledge_irq+0x18>)
10000bfe:	5099      	str	r1, [r3, r2]
10000c00:	4770      	bx	lr
10000c02:	46c0      	nop			; (mov r8, r8)
10000c04:	40014000 	.word	0x40014000

10000c08 <gpio_set_irq_enabled>:
10000c08:	b5f8      	push	{r3, r4, r5, r6, r7, lr}
10000c0a:	0007      	movs	r7, r0
10000c0c:	000d      	movs	r5, r1
10000c0e:	0016      	movs	r6, r2
10000c10:	23d0      	movs	r3, #208	; 0xd0
10000c12:	061b      	lsls	r3, r3, #24
10000c14:	681c      	ldr	r4, [r3, #0]
10000c16:	1e63      	subs	r3, r4, #1
10000c18:	419c      	sbcs	r4, r3
10000c1a:	4263      	negs	r3, r4
10000c1c:	2430      	movs	r4, #48	; 0x30
10000c1e:	401c      	ands	r4, r3
10000c20:	4b0b      	ldr	r3, [pc, #44]	; (10000c50 <gpio_set_irq_enabled+0x48>)
10000c22:	469c      	mov	ip, r3
10000c24:	4464      	add	r4, ip
10000c26:	f7ff ffe1 	bl	10000bec <gpio_acknowledge_irq>
10000c2a:	08fb      	lsrs	r3, r7, #3
10000c2c:	009b      	lsls	r3, r3, #2
10000c2e:	18e4      	adds	r4, r4, r3
10000c30:	2007      	movs	r0, #7
10000c32:	4038      	ands	r0, r7
10000c34:	0080      	lsls	r0, r0, #2
10000c36:	4085      	lsls	r5, r0
10000c38:	2e00      	cmp	r6, #0
10000c3a:	d004      	beq.n	10000c46 <gpio_set_irq_enabled+0x3e>
10000c3c:	2380      	movs	r3, #128	; 0x80
10000c3e:	019b      	lsls	r3, r3, #6
10000c40:	431c      	orrs	r4, r3
10000c42:	6025      	str	r5, [r4, #0]
10000c44:	bdf8      	pop	{r3, r4, r5, r6, r7, pc}
10000c46:	23c0      	movs	r3, #192	; 0xc0
10000c48:	019b      	lsls	r3, r3, #6
10000c4a:	431c      	orrs	r4, r3
10000c4c:	6025      	str	r5, [r4, #0]
10000c4e:	e7f9      	b.n	10000c44 <gpio_set_irq_enabled+0x3c>
10000c50:	40014100 	.word	0x40014100

10000c54 <gpio_set_irq_enabled_with_callback>:
10000c54:	b570      	push	{r4, r5, r6, lr}
10000c56:	0014      	movs	r4, r2
10000c58:	001d      	movs	r5, r3
10000c5a:	f7ff ffd5 	bl	10000c08 <gpio_set_irq_enabled>
10000c5e:	0028      	movs	r0, r5
10000c60:	f7ff ffa0 	bl	10000ba4 <gpio_set_irq_callback>
10000c64:	2c00      	cmp	r4, #0
10000c66:	d100      	bne.n	10000c6a <gpio_set_irq_enabled_with_callback+0x16>
10000c68:	bd70      	pop	{r4, r5, r6, pc}
10000c6a:	2101      	movs	r1, #1
10000c6c:	200d      	movs	r0, #13
10000c6e:	f000 f8eb 	bl	10000e48 <irq_set_enabled>
10000c72:	e7f9      	b.n	10000c68 <gpio_set_irq_enabled_with_callback+0x14>

10000c74 <gpio_default_irq_handler>:
10000c74:	b5f0      	push	{r4, r5, r6, r7, lr}
10000c76:	46de      	mov	lr, fp
10000c78:	4657      	mov	r7, sl
10000c7a:	464e      	mov	r6, r9
10000c7c:	4645      	mov	r5, r8
10000c7e:	b5e0      	push	{r5, r6, r7, lr}
10000c80:	b083      	sub	sp, #12
10000c82:	23d0      	movs	r3, #208	; 0xd0
10000c84:	061b      	lsls	r3, r3, #24
10000c86:	6819      	ldr	r1, [r3, #0]
10000c88:	9101      	str	r1, [sp, #4]
10000c8a:	008a      	lsls	r2, r1, #2
10000c8c:	4b23      	ldr	r3, [pc, #140]	; (10000d1c <gpio_default_irq_handler+0xa8>)
10000c8e:	58d3      	ldr	r3, [r2, r3]
10000c90:	9300      	str	r3, [sp, #0]
10000c92:	000b      	movs	r3, r1
10000c94:	1e5a      	subs	r2, r3, #1
10000c96:	4193      	sbcs	r3, r2
10000c98:	425b      	negs	r3, r3
10000c9a:	2230      	movs	r2, #48	; 0x30
10000c9c:	401a      	ands	r2, r3
10000c9e:	4693      	mov	fp, r2
10000ca0:	4b1f      	ldr	r3, [pc, #124]	; (10000d20 <gpio_default_irq_handler+0xac>)
10000ca2:	469c      	mov	ip, r3
10000ca4:	44e3      	add	fp, ip
10000ca6:	2708      	movs	r7, #8
10000ca8:	260f      	movs	r6, #15
10000caa:	4b1e      	ldr	r3, [pc, #120]	; (10000d24 <gpio_default_irq_handler+0xb0>)
10000cac:	469a      	mov	sl, r3
10000cae:	e01f      	b.n	10000cf0 <gpio_default_irq_handler+0x7c>
10000cb0:	0924      	lsrs	r4, r4, #4
10000cb2:	3501      	adds	r5, #1
10000cb4:	2c00      	cmp	r4, #0
10000cb6:	d018      	beq.n	10000cea <gpio_default_irq_handler+0x76>
10000cb8:	42af      	cmp	r7, r5
10000cba:	d916      	bls.n	10000cea <gpio_default_irq_handler+0x76>
10000cbc:	0033      	movs	r3, r6
10000cbe:	4023      	ands	r3, r4
10000cc0:	4698      	mov	r8, r3
10000cc2:	4226      	tst	r6, r4
10000cc4:	d0f4      	beq.n	10000cb0 <gpio_default_irq_handler+0x3c>
10000cc6:	2301      	movs	r3, #1
10000cc8:	40ab      	lsls	r3, r5
10000cca:	4652      	mov	r2, sl
10000ccc:	4649      	mov	r1, r9
10000cce:	588a      	ldr	r2, [r1, r2]
10000cd0:	421a      	tst	r2, r3
10000cd2:	d1ed      	bne.n	10000cb0 <gpio_default_irq_handler+0x3c>
10000cd4:	4641      	mov	r1, r8
10000cd6:	0028      	movs	r0, r5
10000cd8:	f7ff ff88 	bl	10000bec <gpio_acknowledge_irq>
10000cdc:	9b00      	ldr	r3, [sp, #0]
10000cde:	2b00      	cmp	r3, #0
10000ce0:	d0e6      	beq.n	10000cb0 <gpio_default_irq_handler+0x3c>
10000ce2:	4641      	mov	r1, r8
10000ce4:	0028      	movs	r0, r5
10000ce6:	4798      	blx	r3
10000ce8:	e7e2      	b.n	10000cb0 <gpio_default_irq_handler+0x3c>
10000cea:	3708      	adds	r7, #8
10000cec:	2f28      	cmp	r7, #40	; 0x28
10000cee:	d00e      	beq.n	10000d0e <gpio_default_irq_handler+0x9a>
10000cf0:	003d      	movs	r5, r7
10000cf2:	3d08      	subs	r5, #8
10000cf4:	08eb      	lsrs	r3, r5, #3
10000cf6:	3308      	adds	r3, #8
10000cf8:	009b      	lsls	r3, r3, #2
10000cfa:	465a      	mov	r2, fp
10000cfc:	589c      	ldr	r4, [r3, r2]
10000cfe:	2c00      	cmp	r4, #0
10000d00:	d0f3      	beq.n	10000cea <gpio_default_irq_handler+0x76>
10000d02:	42af      	cmp	r7, r5
10000d04:	d9f1      	bls.n	10000cea <gpio_default_irq_handler+0x76>
10000d06:	9b01      	ldr	r3, [sp, #4]
10000d08:	009b      	lsls	r3, r3, #2
10000d0a:	4699      	mov	r9, r3
10000d0c:	e7d6      	b.n	10000cbc <gpio_default_irq_handler+0x48>
10000d0e:	b003      	add	sp, #12
10000d10:	bcf0      	pop	{r4, r5, r6, r7}
10000d12:	46bb      	mov	fp, r7
10000d14:	46b2      	mov	sl, r6
10000d16:	46a9      	mov	r9, r5
10000d18:	46a0      	mov	r8, r4
10000d1a:	bdf0      	pop	{r4, r5, r6, r7, pc}
10000d1c:	20000414 	.word	0x20000414
10000d20:	40014100 	.word	0x40014100
10000d24:	200004b0 	.word	0x200004b0

10000d28 <gpio_init>:
10000d28:	b510      	push	{r4, lr}
10000d2a:	2301      	movs	r3, #1
10000d2c:	4083      	lsls	r3, r0
10000d2e:	22d0      	movs	r2, #208	; 0xd0
10000d30:	0612      	lsls	r2, r2, #24
10000d32:	6293      	str	r3, [r2, #40]	; 0x28
10000d34:	6193      	str	r3, [r2, #24]
10000d36:	2105      	movs	r1, #5
10000d38:	f7ff ff06 	bl	10000b48 <gpio_set_function>
10000d3c:	bd10      	pop	{r4, pc}
	...

10000d40 <running_on_fpga>:
10000d40:	4b02      	ldr	r3, [pc, #8]	; (10000d4c <running_on_fpga+0xc>)
10000d42:	6818      	ldr	r0, [r3, #0]
10000d44:	0780      	lsls	r0, r0, #30
10000d46:	0fc0      	lsrs	r0, r0, #31
10000d48:	4770      	bx	lr
10000d4a:	46c0      	nop			; (mov r8, r8)
10000d4c:	4006c000 	.word	0x4006c000

10000d50 <hw_claim_lock>:
10000d50:	f3ef 8010 	mrs	r0, PRIMASK
10000d54:	b672      	cpsid	i
10000d56:	4a03      	ldr	r2, [pc, #12]	; (10000d64 <hw_claim_lock+0x14>)
10000d58:	6813      	ldr	r3, [r2, #0]
10000d5a:	2b00      	cmp	r3, #0
10000d5c:	d0fc      	beq.n	10000d58 <hw_claim_lock+0x8>
10000d5e:	f3bf 8f5f 	dmb	sy
10000d62:	4770      	bx	lr
10000d64:	d000012c 	.word	0xd000012c

10000d68 <hw_claim_unlock>:
10000d68:	f3bf 8f5f 	dmb	sy
10000d6c:	4b02      	ldr	r3, [pc, #8]	; (10000d78 <hw_claim_unlock+0x10>)
10000d6e:	2200      	movs	r2, #0
10000d70:	601a      	str	r2, [r3, #0]
10000d72:	f380 8810 	msr	PRIMASK, r0
10000d76:	4770      	bx	lr
10000d78:	d000012c 	.word	0xd000012c

10000d7c <hw_claim_or_assert>:
10000d7c:	b5f8      	push	{r3, r4, r5, r6, r7, lr}
10000d7e:	0005      	movs	r5, r0
10000d80:	000c      	movs	r4, r1
10000d82:	0016      	movs	r6, r2
10000d84:	f7ff ffe4 	bl	10000d50 <hw_claim_lock>
10000d88:	08e3      	lsrs	r3, r4, #3
10000d8a:	18ef      	adds	r7, r5, r3
10000d8c:	5cea      	ldrb	r2, [r5, r3]
10000d8e:	2107      	movs	r1, #7
10000d90:	4021      	ands	r1, r4
10000d92:	2301      	movs	r3, #1
10000d94:	408b      	lsls	r3, r1
10000d96:	4213      	tst	r3, r2
10000d98:	d104      	bne.n	10000da4 <hw_claim_or_assert+0x28>
10000d9a:	4313      	orrs	r3, r2
10000d9c:	703b      	strb	r3, [r7, #0]
10000d9e:	f7ff ffe3 	bl	10000d68 <hw_claim_unlock>
10000da2:	bdf8      	pop	{r3, r4, r5, r6, r7, pc}
10000da4:	0021      	movs	r1, r4
10000da6:	0030      	movs	r0, r6
10000da8:	f001 fa0c 	bl	100021c4 <panic>

10000dac <spin_locks_reset>:
10000dac:	4b04      	ldr	r3, [pc, #16]	; (10000dc0 <spin_locks_reset+0x14>)
10000dae:	2100      	movs	r1, #0
10000db0:	4a04      	ldr	r2, [pc, #16]	; (10000dc4 <spin_locks_reset+0x18>)
10000db2:	f3bf 8f5f 	dmb	sy
10000db6:	c302      	stmia	r3!, {r1}
10000db8:	4293      	cmp	r3, r2
10000dba:	d1fa      	bne.n	10000db2 <spin_locks_reset+0x6>
10000dbc:	4770      	bx	lr
10000dbe:	46c0      	nop			; (mov r8, r8)
10000dc0:	d0000100 	.word	0xd0000100
10000dc4:	d0000180 	.word	0xd0000180

10000dc8 <next_striped_spin_lock_num>:
10000dc8:	4b06      	ldr	r3, [pc, #24]	; (10000de4 <next_striped_spin_lock_num+0x1c>)
10000dca:	7818      	ldrb	r0, [r3, #0]
10000dcc:	1c43      	adds	r3, r0, #1
10000dce:	b2db      	uxtb	r3, r3
10000dd0:	2b17      	cmp	r3, #23
10000dd2:	d802      	bhi.n	10000dda <next_striped_spin_lock_num+0x12>
10000dd4:	4a03      	ldr	r2, [pc, #12]	; (10000de4 <next_striped_spin_lock_num+0x1c>)
10000dd6:	7013      	strb	r3, [r2, #0]
10000dd8:	e002      	b.n	10000de0 <next_striped_spin_lock_num+0x18>
10000dda:	4b02      	ldr	r3, [pc, #8]	; (10000de4 <next_striped_spin_lock_num+0x1c>)
10000ddc:	2210      	movs	r2, #16
10000dde:	701a      	strb	r2, [r3, #0]
10000de0:	4770      	bx	lr
10000de2:	46c0      	nop			; (mov r8, r8)
10000de4:	20000228 	.word	0x20000228

10000de8 <set_raw_irq_handler_and_unlock>:
10000de8:	4b07      	ldr	r3, [pc, #28]	; (10000e08 <set_raw_irq_handler_and_unlock+0x20>)
10000dea:	689b      	ldr	r3, [r3, #8]
10000dec:	3010      	adds	r0, #16
10000dee:	0080      	lsls	r0, r0, #2
10000df0:	50c1      	str	r1, [r0, r3]
10000df2:	f3bf 8f5f 	dmb	sy
10000df6:	f3bf 8f5f 	dmb	sy
10000dfa:	4b04      	ldr	r3, [pc, #16]	; (10000e0c <set_raw_irq_handler_and_unlock+0x24>)
10000dfc:	2100      	movs	r1, #0
10000dfe:	6019      	str	r1, [r3, #0]
10000e00:	f382 8810 	msr	PRIMASK, r2
10000e04:	4770      	bx	lr
10000e06:	46c0      	nop			; (mov r8, r8)
10000e08:	e000ed00 	.word	0xe000ed00
10000e0c:	d0000124 	.word	0xd0000124

10000e10 <irq_is_enabled>:
10000e10:	4b04      	ldr	r3, [pc, #16]	; (10000e24 <irq_is_enabled+0x14>)
10000e12:	681b      	ldr	r3, [r3, #0]
10000e14:	2201      	movs	r2, #1
10000e16:	4082      	lsls	r2, r0
10000e18:	4013      	ands	r3, r2
10000e1a:	1e5a      	subs	r2, r3, #1
10000e1c:	4193      	sbcs	r3, r2
10000e1e:	b2d8      	uxtb	r0, r3
10000e20:	4770      	bx	lr
10000e22:	46c0      	nop			; (mov r8, r8)
10000e24:	e000e100 	.word	0xe000e100

10000e28 <irq_set_mask_enabled>:
10000e28:	2900      	cmp	r1, #0
10000e2a:	d004      	beq.n	10000e36 <irq_set_mask_enabled+0xe>
10000e2c:	4b03      	ldr	r3, [pc, #12]	; (10000e3c <irq_set_mask_enabled+0x14>)
10000e2e:	6018      	str	r0, [r3, #0]
10000e30:	4b03      	ldr	r3, [pc, #12]	; (10000e40 <irq_set_mask_enabled+0x18>)
10000e32:	6018      	str	r0, [r3, #0]
10000e34:	4770      	bx	lr
10000e36:	4b03      	ldr	r3, [pc, #12]	; (10000e44 <irq_set_mask_enabled+0x1c>)
10000e38:	6018      	str	r0, [r3, #0]
10000e3a:	e7fb      	b.n	10000e34 <irq_set_mask_enabled+0xc>
10000e3c:	e000e280 	.word	0xe000e280
10000e40:	e000e100 	.word	0xe000e100
10000e44:	e000e180 	.word	0xe000e180

10000e48 <irq_set_enabled>:
10000e48:	b510      	push	{r4, lr}
10000e4a:	2301      	movs	r3, #1
10000e4c:	4083      	lsls	r3, r0
10000e4e:	0018      	movs	r0, r3
10000e50:	f7ff ffea 	bl	10000e28 <irq_set_mask_enabled>
10000e54:	bd10      	pop	{r4, pc}
	...

10000e58 <irq_get_vtable_handler>:
10000e58:	4b02      	ldr	r3, [pc, #8]	; (10000e64 <irq_get_vtable_handler+0xc>)
10000e5a:	689b      	ldr	r3, [r3, #8]
10000e5c:	3010      	adds	r0, #16
10000e5e:	0080      	lsls	r0, r0, #2
10000e60:	58c0      	ldr	r0, [r0, r3]
10000e62:	4770      	bx	lr
10000e64:	e000ed00 	.word	0xe000ed00

10000e68 <irq_set_exclusive_handler>:
10000e68:	b570      	push	{r4, r5, r6, lr}
10000e6a:	0004      	movs	r4, r0
10000e6c:	000d      	movs	r5, r1
10000e6e:	f3ef 8610 	mrs	r6, PRIMASK
10000e72:	b672      	cpsid	i
10000e74:	4a0b      	ldr	r2, [pc, #44]	; (10000ea4 <irq_set_exclusive_handler+0x3c>)
10000e76:	6813      	ldr	r3, [r2, #0]
10000e78:	2b00      	cmp	r3, #0
10000e7a:	d0fc      	beq.n	10000e76 <irq_set_exclusive_handler+0xe>
10000e7c:	f3bf 8f5f 	dmb	sy
10000e80:	0020      	movs	r0, r4
10000e82:	f7ff ffe9 	bl	10000e58 <irq_get_vtable_handler>
10000e86:	4b08      	ldr	r3, [pc, #32]	; (10000ea8 <irq_set_exclusive_handler+0x40>)
10000e88:	4298      	cmp	r0, r3
10000e8a:	d001      	beq.n	10000e90 <irq_set_exclusive_handler+0x28>
10000e8c:	42a8      	cmp	r0, r5
10000e8e:	d105      	bne.n	10000e9c <irq_set_exclusive_handler+0x34>
10000e90:	0032      	movs	r2, r6
10000e92:	0029      	movs	r1, r5
10000e94:	0020      	movs	r0, r4
10000e96:	f7ff ffa7 	bl	10000de8 <set_raw_irq_handler_and_unlock>
10000e9a:	bd70      	pop	{r4, r5, r6, pc}
10000e9c:	f001 f9aa 	bl	100021f4 <hard_assertion_failure>
10000ea0:	e7f6      	b.n	10000e90 <irq_set_exclusive_handler+0x28>
10000ea2:	46c0      	nop			; (mov r8, r8)
10000ea4:	d0000124 	.word	0xd0000124
10000ea8:	100001cd 	.word	0x100001cd

10000eac <irq_add_shared_handler>:
10000eac:	b5f0      	push	{r4, r5, r6, r7, lr}
10000eae:	46de      	mov	lr, fp
10000eb0:	4657      	mov	r7, sl
10000eb2:	464e      	mov	r6, r9
10000eb4:	4645      	mov	r5, r8
10000eb6:	b5e0      	push	{r5, r6, r7, lr}
10000eb8:	b083      	sub	sp, #12
10000eba:	4680      	mov	r8, r0
10000ebc:	9101      	str	r1, [sp, #4]
10000ebe:	0015      	movs	r5, r2
10000ec0:	f3ef 8a10 	mrs	sl, PRIMASK
10000ec4:	b672      	cpsid	i
10000ec6:	4a64      	ldr	r2, [pc, #400]	; (10001058 <irq_add_shared_handler+0x1ac>)
10000ec8:	6813      	ldr	r3, [r2, #0]
10000eca:	2b00      	cmp	r3, #0
10000ecc:	d0fc      	beq.n	10000ec8 <irq_add_shared_handler+0x1c>
10000ece:	f3bf 8f5f 	dmb	sy
10000ed2:	4b62      	ldr	r3, [pc, #392]	; (1000105c <irq_add_shared_handler+0x1b0>)
10000ed4:	781b      	ldrb	r3, [r3, #0]
10000ed6:	2b7f      	cmp	r3, #127	; 0x7f
10000ed8:	d83d      	bhi.n	10000f56 <irq_add_shared_handler+0xaa>
10000eda:	4a60      	ldr	r2, [pc, #384]	; (1000105c <irq_add_shared_handler+0x1b0>)
10000edc:	2600      	movs	r6, #0
10000ede:	5796      	ldrsb	r6, [r2, r6]
10000ee0:	0074      	lsls	r4, r6, #1
10000ee2:	19a4      	adds	r4, r4, r6
10000ee4:	00a4      	lsls	r4, r4, #2
10000ee6:	4b5e      	ldr	r3, [pc, #376]	; (10001060 <irq_add_shared_handler+0x1b4>)
10000ee8:	1919      	adds	r1, r3, r4
10000eea:	9100      	str	r1, [sp, #0]
10000eec:	7989      	ldrb	r1, [r1, #6]
10000eee:	7011      	strb	r1, [r2, #0]
10000ef0:	4a5c      	ldr	r2, [pc, #368]	; (10001064 <irq_add_shared_handler+0x1b8>)
10000ef2:	6891      	ldr	r1, [r2, #8]
10000ef4:	4642      	mov	r2, r8
10000ef6:	3210      	adds	r2, #16
10000ef8:	0092      	lsls	r2, r2, #2
10000efa:	5851      	ldr	r1, [r2, r1]
10000efc:	1acb      	subs	r3, r1, r3
10000efe:	2b2f      	cmp	r3, #47	; 0x2f
10000f00:	d92f      	bls.n	10000f62 <irq_add_shared_handler+0xb6>
10000f02:	4b59      	ldr	r3, [pc, #356]	; (10001068 <irq_add_shared_handler+0x1bc>)
10000f04:	4299      	cmp	r1, r3
10000f06:	d129      	bne.n	10000f5c <irq_add_shared_handler+0xb0>
10000f08:	4855      	ldr	r0, [pc, #340]	; (10001060 <irq_add_shared_handler+0x1b4>)
10000f0a:	0071      	lsls	r1, r6, #1
10000f0c:	198b      	adds	r3, r1, r6
10000f0e:	009b      	lsls	r3, r3, #2
10000f10:	4a56      	ldr	r2, [pc, #344]	; (1000106c <irq_add_shared_handler+0x1c0>)
10000f12:	521a      	strh	r2, [r3, r0]
10000f14:	18c2      	adds	r2, r0, r3
10000f16:	3402      	adds	r4, #2
10000f18:	1824      	adds	r4, r4, r0
10000f1a:	4b55      	ldr	r3, [pc, #340]	; (10001070 <irq_add_shared_handler+0x1c4>)
10000f1c:	3b04      	subs	r3, #4
10000f1e:	1b1b      	subs	r3, r3, r4
10000f20:	051b      	lsls	r3, r3, #20
10000f22:	0d5b      	lsrs	r3, r3, #21
10000f24:	4c53      	ldr	r4, [pc, #332]	; (10001074 <irq_add_shared_handler+0x1c8>)
10000f26:	4323      	orrs	r3, r4
10000f28:	8053      	strh	r3, [r2, #2]
10000f2a:	4b53      	ldr	r3, [pc, #332]	; (10001078 <irq_add_shared_handler+0x1cc>)
10000f2c:	8093      	strh	r3, [r2, #4]
10000f2e:	23ff      	movs	r3, #255	; 0xff
10000f30:	7193      	strb	r3, [r2, #6]
10000f32:	71d5      	strb	r5, [r2, #7]
10000f34:	9b01      	ldr	r3, [sp, #4]
10000f36:	6093      	str	r3, [r2, #8]
10000f38:	2101      	movs	r1, #1
10000f3a:	9b00      	ldr	r3, [sp, #0]
10000f3c:	430b      	orrs	r3, r1
10000f3e:	0019      	movs	r1, r3
10000f40:	4652      	mov	r2, sl
10000f42:	4640      	mov	r0, r8
10000f44:	f7ff ff50 	bl	10000de8 <set_raw_irq_handler_and_unlock>
10000f48:	b003      	add	sp, #12
10000f4a:	bcf0      	pop	{r4, r5, r6, r7}
10000f4c:	46bb      	mov	fp, r7
10000f4e:	46b2      	mov	sl, r6
10000f50:	46a9      	mov	r9, r5
10000f52:	46a0      	mov	r8, r4
10000f54:	bdf0      	pop	{r4, r5, r6, r7, pc}
10000f56:	f001 f94d 	bl	100021f4 <hard_assertion_failure>
10000f5a:	e7be      	b.n	10000eda <irq_add_shared_handler+0x2e>
10000f5c:	f001 f94a 	bl	100021f4 <hard_assertion_failure>
10000f60:	e7d2      	b.n	10000f08 <irq_add_shared_handler+0x5c>
10000f62:	2301      	movs	r3, #1
10000f64:	000a      	movs	r2, r1
10000f66:	439a      	bics	r2, r3
10000f68:	0013      	movs	r3, r2
10000f6a:	0010      	movs	r0, r2
10000f6c:	79d2      	ldrb	r2, [r2, #7]
10000f6e:	42aa      	cmp	r2, r5
10000f70:	d93c      	bls.n	10000fec <irq_add_shared_handler+0x140>
10000f72:	4b3b      	ldr	r3, [pc, #236]	; (10001060 <irq_add_shared_handler+0x1b4>)
10000f74:	469c      	mov	ip, r3
10000f76:	e000      	b.n	10000f7a <irq_add_shared_handler+0xce>
10000f78:	0018      	movs	r0, r3
10000f7a:	2206      	movs	r2, #6
10000f7c:	5682      	ldrsb	r2, [r0, r2]
10000f7e:	2a00      	cmp	r2, #0
10000f80:	db17      	blt.n	10000fb2 <irq_add_shared_handler+0x106>
10000f82:	0053      	lsls	r3, r2, #1
10000f84:	189b      	adds	r3, r3, r2
10000f86:	009b      	lsls	r3, r3, #2
10000f88:	4463      	add	r3, ip
10000f8a:	79df      	ldrb	r7, [r3, #7]
10000f8c:	42af      	cmp	r7, r5
10000f8e:	d8f3      	bhi.n	10000f78 <irq_add_shared_handler+0xcc>
10000f90:	8883      	ldrh	r3, [r0, #4]
10000f92:	055b      	lsls	r3, r3, #21
10000f94:	151b      	asrs	r3, r3, #20
10000f96:	18c3      	adds	r3, r0, r3
10000f98:	3404      	adds	r4, #4
10000f9a:	4f31      	ldr	r7, [pc, #196]	; (10001060 <irq_add_shared_handler+0x1b4>)
10000f9c:	46bc      	mov	ip, r7
10000f9e:	4464      	add	r4, ip
10000fa0:	1b1b      	subs	r3, r3, r4
10000fa2:	3304      	adds	r3, #4
10000fa4:	051b      	lsls	r3, r3, #20
10000fa6:	0d5b      	lsrs	r3, r3, #21
10000fa8:	24e0      	movs	r4, #224	; 0xe0
10000faa:	0224      	lsls	r4, r4, #8
10000fac:	4323      	orrs	r3, r4
10000fae:	4699      	mov	r9, r3
10000fb0:	e001      	b.n	10000fb6 <irq_add_shared_handler+0x10a>
10000fb2:	4b32      	ldr	r3, [pc, #200]	; (1000107c <irq_add_shared_handler+0x1d0>)
10000fb4:	4699      	mov	r9, r3
10000fb6:	9c00      	ldr	r4, [sp, #0]
10000fb8:	1a24      	subs	r4, r4, r0
10000fba:	3c08      	subs	r4, #8
10000fbc:	0524      	lsls	r4, r4, #20
10000fbe:	0d64      	lsrs	r4, r4, #21
10000fc0:	4f2c      	ldr	r7, [pc, #176]	; (10001074 <irq_add_shared_handler+0x1c8>)
10000fc2:	433c      	orrs	r4, r7
10000fc4:	8084      	strh	r4, [r0, #4]
10000fc6:	7186      	strb	r6, [r0, #6]
10000fc8:	4c25      	ldr	r4, [pc, #148]	; (10001060 <irq_add_shared_handler+0x1b4>)
10000fca:	0077      	lsls	r7, r6, #1
10000fcc:	19b8      	adds	r0, r7, r6
10000fce:	0080      	lsls	r0, r0, #2
10000fd0:	4b2b      	ldr	r3, [pc, #172]	; (10001080 <irq_add_shared_handler+0x1d4>)
10000fd2:	5303      	strh	r3, [r0, r4]
10000fd4:	19b8      	adds	r0, r7, r6
10000fd6:	0080      	lsls	r0, r0, #2
10000fd8:	1820      	adds	r0, r4, r0
10000fda:	3b81      	subs	r3, #129	; 0x81
10000fdc:	8043      	strh	r3, [r0, #2]
10000fde:	464b      	mov	r3, r9
10000fe0:	8083      	strh	r3, [r0, #4]
10000fe2:	7182      	strb	r2, [r0, #6]
10000fe4:	71c5      	strb	r5, [r0, #7]
10000fe6:	9b01      	ldr	r3, [sp, #4]
10000fe8:	6083      	str	r3, [r0, #8]
10000fea:	e7a9      	b.n	10000f40 <irq_add_shared_handler+0x94>
10000fec:	491c      	ldr	r1, [pc, #112]	; (10001060 <irq_add_shared_handler+0x1b4>)
10000fee:	4a25      	ldr	r2, [pc, #148]	; (10001084 <irq_add_shared_handler+0x1d8>)
10000ff0:	4691      	mov	r9, r2
10000ff2:	001a      	movs	r2, r3
10000ff4:	4648      	mov	r0, r9
10000ff6:	1a52      	subs	r2, r2, r1
10000ff8:	4152      	adcs	r2, r2
10000ffa:	4350      	muls	r0, r2
10000ffc:	0d00      	lsrs	r0, r0, #20
10000ffe:	4681      	mov	r9, r0
10001000:	0072      	lsls	r2, r6, #1
10001002:	4694      	mov	ip, r2
10001004:	1992      	adds	r2, r2, r6
10001006:	0092      	lsls	r2, r2, #2
10001008:	4818      	ldr	r0, [pc, #96]	; (1000106c <irq_add_shared_handler+0x1c0>)
1000100a:	5250      	strh	r0, [r2, r1]
1000100c:	4662      	mov	r2, ip
1000100e:	1990      	adds	r0, r2, r6
10001010:	0080      	lsls	r0, r0, #2
10001012:	1808      	adds	r0, r1, r0
10001014:	1ca2      	adds	r2, r4, #2
10001016:	4693      	mov	fp, r2
10001018:	448b      	add	fp, r1
1000101a:	4a15      	ldr	r2, [pc, #84]	; (10001070 <irq_add_shared_handler+0x1c4>)
1000101c:	3a04      	subs	r2, #4
1000101e:	465f      	mov	r7, fp
10001020:	1bd2      	subs	r2, r2, r7
10001022:	0512      	lsls	r2, r2, #20
10001024:	0d52      	lsrs	r2, r2, #21
10001026:	4f13      	ldr	r7, [pc, #76]	; (10001074 <irq_add_shared_handler+0x1c8>)
10001028:	433a      	orrs	r2, r7
1000102a:	8042      	strh	r2, [r0, #2]
1000102c:	1d22      	adds	r2, r4, #4
1000102e:	1852      	adds	r2, r2, r1
10001030:	1a9a      	subs	r2, r3, r2
10001032:	3a04      	subs	r2, #4
10001034:	0512      	lsls	r2, r2, #20
10001036:	0d52      	lsrs	r2, r2, #21
10001038:	433a      	orrs	r2, r7
1000103a:	8082      	strh	r2, [r0, #4]
1000103c:	464a      	mov	r2, r9
1000103e:	7182      	strb	r2, [r0, #6]
10001040:	71c5      	strb	r5, [r0, #7]
10001042:	9a01      	ldr	r2, [sp, #4]
10001044:	6082      	str	r2, [r0, #8]
10001046:	4a0e      	ldr	r2, [pc, #56]	; (10001080 <irq_add_shared_handler+0x1d4>)
10001048:	801a      	strh	r2, [r3, #0]
1000104a:	3a81      	subs	r2, #129	; 0x81
1000104c:	805a      	strh	r2, [r3, #2]
1000104e:	2101      	movs	r1, #1
10001050:	9b00      	ldr	r3, [sp, #0]
10001052:	430b      	orrs	r3, r1
10001054:	0019      	movs	r1, r3
10001056:	e773      	b.n	10000f40 <irq_add_shared_handler+0x94>
10001058:	d0000124 	.word	0xd0000124
1000105c:	20025ed9 	.word	0x20025ed9
10001060:	2000022c 	.word	0x2000022c
10001064:	e000ed00 	.word	0xe000ed00
10001068:	100001cd 	.word	0x100001cd
1000106c:	ffffa100 	.word	0xffffa100
10001070:	2000025c 	.word	0x2000025c
10001074:	ffffe000 	.word	0xffffe000
10001078:	ffffbd01 	.word	0xffffbd01
1000107c:	0000bd01 	.word	0x0000bd01
10001080:	00004801 	.word	0x00004801
10001084:	0000aaaa 	.word	0x0000aaaa

10001088 <irq_remove_handler>:
10001088:	b5f0      	push	{r4, r5, r6, r7, lr}
1000108a:	46d6      	mov	lr, sl
1000108c:	464f      	mov	r7, r9
1000108e:	4646      	mov	r6, r8
10001090:	b5c0      	push	{r6, r7, lr}
10001092:	b082      	sub	sp, #8
10001094:	0004      	movs	r4, r0
10001096:	000d      	movs	r5, r1
10001098:	f3ef 8810 	mrs	r8, PRIMASK
1000109c:	b672      	cpsid	i
1000109e:	4a58      	ldr	r2, [pc, #352]	; (10001200 <irq_remove_handler+0x178>)
100010a0:	6813      	ldr	r3, [r2, #0]
100010a2:	2b00      	cmp	r3, #0
100010a4:	d0fc      	beq.n	100010a0 <irq_remove_handler+0x18>
100010a6:	f3bf 8f5f 	dmb	sy
100010aa:	4b56      	ldr	r3, [pc, #344]	; (10001204 <irq_remove_handler+0x17c>)
100010ac:	689b      	ldr	r3, [r3, #8]
100010ae:	0027      	movs	r7, r4
100010b0:	3710      	adds	r7, #16
100010b2:	00ba      	lsls	r2, r7, #2
100010b4:	58d6      	ldr	r6, [r2, r3]
100010b6:	4b54      	ldr	r3, [pc, #336]	; (10001208 <irq_remove_handler+0x180>)
100010b8:	429e      	cmp	r6, r3
100010ba:	d007      	beq.n	100010cc <irq_remove_handler+0x44>
100010bc:	42ae      	cmp	r6, r5
100010be:	d100      	bne.n	100010c2 <irq_remove_handler+0x3a>
100010c0:	e081      	b.n	100011c6 <irq_remove_handler+0x13e>
100010c2:	9601      	str	r6, [sp, #4]
100010c4:	4b51      	ldr	r3, [pc, #324]	; (1000120c <irq_remove_handler+0x184>)
100010c6:	1af3      	subs	r3, r6, r3
100010c8:	2b2f      	cmp	r3, #47	; 0x2f
100010ca:	d90a      	bls.n	100010e2 <irq_remove_handler+0x5a>
100010cc:	4642      	mov	r2, r8
100010ce:	0031      	movs	r1, r6
100010d0:	0020      	movs	r0, r4
100010d2:	f7ff fe89 	bl	10000de8 <set_raw_irq_handler_and_unlock>
100010d6:	b002      	add	sp, #8
100010d8:	bce0      	pop	{r5, r6, r7}
100010da:	46ba      	mov	sl, r7
100010dc:	46b1      	mov	r9, r6
100010de:	46a8      	mov	r8, r5
100010e0:	bdf0      	pop	{r4, r5, r6, r7, pc}
100010e2:	0020      	movs	r0, r4
100010e4:	f7ff fe94 	bl	10000e10 <irq_is_enabled>
100010e8:	4681      	mov	r9, r0
100010ea:	2100      	movs	r1, #0
100010ec:	0020      	movs	r0, r4
100010ee:	f7ff feab 	bl	10000e48 <irq_set_enabled>
100010f2:	f3bf 8f5f 	dmb	sy
100010f6:	f3ef 8305 	mrs	r3, IPSR
100010fa:	469a      	mov	sl, r3
100010fc:	2b00      	cmp	r3, #0
100010fe:	d003      	beq.n	10001108 <irq_remove_handler+0x80>
10001100:	429f      	cmp	r7, r3
10001102:	d001      	beq.n	10001108 <irq_remove_handler+0x80>
10001104:	f001 f876 	bl	100021f4 <hard_assertion_failure>
10001108:	2301      	movs	r3, #1
1000110a:	9f01      	ldr	r7, [sp, #4]
1000110c:	439f      	bics	r7, r3
1000110e:	68bb      	ldr	r3, [r7, #8]
10001110:	429d      	cmp	r5, r3
10001112:	d05a      	beq.n	100011ca <irq_remove_handler+0x142>
10001114:	493d      	ldr	r1, [pc, #244]	; (1000120c <irq_remove_handler+0x184>)
10001116:	e000      	b.n	1000111a <irq_remove_handler+0x92>
10001118:	0017      	movs	r7, r2
1000111a:	2006      	movs	r0, #6
1000111c:	5638      	ldrsb	r0, [r7, r0]
1000111e:	2800      	cmp	r0, #0
10001120:	db56      	blt.n	100011d0 <irq_remove_handler+0x148>
10001122:	0043      	lsls	r3, r0, #1
10001124:	181a      	adds	r2, r3, r0
10001126:	0092      	lsls	r2, r2, #2
10001128:	1852      	adds	r2, r2, r1
1000112a:	6893      	ldr	r3, [r2, #8]
1000112c:	42ab      	cmp	r3, r5
1000112e:	d1f3      	bne.n	10001118 <irq_remove_handler+0x90>
10001130:	2106      	movs	r1, #6
10001132:	5651      	ldrsb	r1, [r2, r1]
10001134:	2900      	cmp	r1, #0
10001136:	db30      	blt.n	1000119a <irq_remove_handler+0x112>
10001138:	004b      	lsls	r3, r1, #1
1000113a:	185b      	adds	r3, r3, r1
1000113c:	0098      	lsls	r0, r3, #2
1000113e:	4b33      	ldr	r3, [pc, #204]	; (1000120c <irq_remove_handler+0x184>)
10001140:	181b      	adds	r3, r3, r0
10001142:	6898      	ldr	r0, [r3, #8]
10001144:	6090      	str	r0, [r2, #8]
10001146:	79d8      	ldrb	r0, [r3, #7]
10001148:	71d0      	strb	r0, [r2, #7]
1000114a:	2006      	movs	r0, #6
1000114c:	5618      	ldrsb	r0, [r3, r0]
1000114e:	7190      	strb	r0, [r2, #6]
10001150:	799b      	ldrb	r3, [r3, #6]
10001152:	2b7f      	cmp	r3, #127	; 0x7f
10001154:	d81f      	bhi.n	10001196 <irq_remove_handler+0x10e>
10001156:	4d2d      	ldr	r5, [pc, #180]	; (1000120c <irq_remove_handler+0x184>)
10001158:	0048      	lsls	r0, r1, #1
1000115a:	1840      	adds	r0, r0, r1
1000115c:	0080      	lsls	r0, r0, #2
1000115e:	1828      	adds	r0, r5, r0
10001160:	8880      	ldrh	r0, [r0, #4]
10001162:	0540      	lsls	r0, r0, #21
10001164:	1503      	asrs	r3, r0, #20
10001166:	0048      	lsls	r0, r1, #1
10001168:	1840      	adds	r0, r0, r1
1000116a:	0080      	lsls	r0, r0, #2
1000116c:	181b      	adds	r3, r3, r0
1000116e:	3308      	adds	r3, #8
10001170:	195b      	adds	r3, r3, r5
10001172:	1a9b      	subs	r3, r3, r2
10001174:	3b08      	subs	r3, #8
10001176:	051b      	lsls	r3, r3, #20
10001178:	0d5b      	lsrs	r3, r3, #21
1000117a:	20e0      	movs	r0, #224	; 0xe0
1000117c:	0200      	lsls	r0, r0, #8
1000117e:	4303      	orrs	r3, r0
10001180:	8093      	strh	r3, [r2, #4]
10001182:	004b      	lsls	r3, r1, #1
10001184:	185b      	adds	r3, r3, r1
10001186:	009b      	lsls	r3, r3, #2
10001188:	4a20      	ldr	r2, [pc, #128]	; (1000120c <irq_remove_handler+0x184>)
1000118a:	18d3      	adds	r3, r2, r3
1000118c:	4a20      	ldr	r2, [pc, #128]	; (10001210 <irq_remove_handler+0x188>)
1000118e:	7810      	ldrb	r0, [r2, #0]
10001190:	7198      	strb	r0, [r3, #6]
10001192:	7011      	strb	r1, [r2, #0]
10001194:	e01e      	b.n	100011d4 <irq_remove_handler+0x14c>
10001196:	4b1f      	ldr	r3, [pc, #124]	; (10001214 <irq_remove_handler+0x18c>)
10001198:	e7f2      	b.n	10001180 <irq_remove_handler+0xf8>
1000119a:	4653      	mov	r3, sl
1000119c:	2b00      	cmp	r3, #0
1000119e:	d122      	bne.n	100011e6 <irq_remove_handler+0x15e>
100011a0:	2f00      	cmp	r7, #0
100011a2:	d00e      	beq.n	100011c2 <irq_remove_handler+0x13a>
100011a4:	23ff      	movs	r3, #255	; 0xff
100011a6:	71bb      	strb	r3, [r7, #6]
100011a8:	4b1b      	ldr	r3, [pc, #108]	; (10001218 <irq_remove_handler+0x190>)
100011aa:	80bb      	strh	r3, [r7, #4]
100011ac:	4918      	ldr	r1, [pc, #96]	; (10001210 <irq_remove_handler+0x188>)
100011ae:	780b      	ldrb	r3, [r1, #0]
100011b0:	7193      	strb	r3, [r2, #6]
100011b2:	4b1a      	ldr	r3, [pc, #104]	; (1000121c <irq_remove_handler+0x194>)
100011b4:	4815      	ldr	r0, [pc, #84]	; (1000120c <irq_remove_handler+0x184>)
100011b6:	1a12      	subs	r2, r2, r0
100011b8:	4152      	adcs	r2, r2
100011ba:	4353      	muls	r3, r2
100011bc:	0d1b      	lsrs	r3, r3, #20
100011be:	700b      	strb	r3, [r1, #0]
100011c0:	e008      	b.n	100011d4 <irq_remove_handler+0x14c>
100011c2:	4e11      	ldr	r6, [pc, #68]	; (10001208 <irq_remove_handler+0x180>)
100011c4:	e7f2      	b.n	100011ac <irq_remove_handler+0x124>
100011c6:	4e10      	ldr	r6, [pc, #64]	; (10001208 <irq_remove_handler+0x180>)
100011c8:	e780      	b.n	100010cc <irq_remove_handler+0x44>
100011ca:	003a      	movs	r2, r7
100011cc:	2700      	movs	r7, #0
100011ce:	e7af      	b.n	10001130 <irq_remove_handler+0xa8>
100011d0:	429d      	cmp	r5, r3
100011d2:	d004      	beq.n	100011de <irq_remove_handler+0x156>
100011d4:	4649      	mov	r1, r9
100011d6:	0020      	movs	r0, r4
100011d8:	f7ff fe36 	bl	10000e48 <irq_set_enabled>
100011dc:	e776      	b.n	100010cc <irq_remove_handler+0x44>
100011de:	003a      	movs	r2, r7
100011e0:	4653      	mov	r3, sl
100011e2:	2b00      	cmp	r3, #0
100011e4:	d0de      	beq.n	100011a4 <irq_remove_handler+0x11c>
100011e6:	4b0e      	ldr	r3, [pc, #56]	; (10001220 <irq_remove_handler+0x198>)
100011e8:	1a9b      	subs	r3, r3, r2
100011ea:	3b08      	subs	r3, #8
100011ec:	0858      	lsrs	r0, r3, #1
100011ee:	025b      	lsls	r3, r3, #9
100011f0:	0d5b      	lsrs	r3, r3, #21
100011f2:	490c      	ldr	r1, [pc, #48]	; (10001224 <irq_remove_handler+0x19c>)
100011f4:	430b      	orrs	r3, r1
100011f6:	8093      	strh	r3, [r2, #4]
100011f8:	4b0b      	ldr	r3, [pc, #44]	; (10001228 <irq_remove_handler+0x1a0>)
100011fa:	4303      	orrs	r3, r0
100011fc:	80d3      	strh	r3, [r2, #6]
100011fe:	e7e9      	b.n	100011d4 <irq_remove_handler+0x14c>
10001200:	d0000124 	.word	0xd0000124
10001204:	e000ed00 	.word	0xe000ed00
10001208:	100001cd 	.word	0x100001cd
1000120c:	2000022c 	.word	0x2000022c
10001210:	20025ed9 	.word	0x20025ed9
10001214:	0000bd01 	.word	0x0000bd01
10001218:	ffffbd01 	.word	0xffffbd01
1000121c:	0000aaaa 	.word	0x0000aaaa
10001220:	20000266 	.word	0x20000266
10001224:	fffff000 	.word	0xfffff000
10001228:	fffff800 	.word	0xfffff800

1000122c <irq_add_tail_to_free_list>:
1000122c:	b570      	push	{r4, r5, r6, lr}
1000122e:	2401      	movs	r4, #1
10001230:	4304      	orrs	r4, r0
10001232:	f3ef 8205 	mrs	r2, IPSR
10001236:	f3ef 8c10 	mrs	ip, PRIMASK
1000123a:	b672      	cpsid	i
1000123c:	491c      	ldr	r1, [pc, #112]	; (100012b0 <irq_add_tail_to_free_list+0x84>)
1000123e:	680b      	ldr	r3, [r1, #0]
10001240:	2b00      	cmp	r3, #0
10001242:	d0fc      	beq.n	1000123e <irq_add_tail_to_free_list+0x12>
10001244:	f3bf 8f5f 	dmb	sy
10001248:	4b1a      	ldr	r3, [pc, #104]	; (100012b4 <irq_add_tail_to_free_list+0x88>)
1000124a:	0001      	movs	r1, r0
1000124c:	4d1a      	ldr	r5, [pc, #104]	; (100012b8 <irq_add_tail_to_free_list+0x8c>)
1000124e:	1b49      	subs	r1, r1, r5
10001250:	4149      	adcs	r1, r1
10001252:	434b      	muls	r3, r1
10001254:	0d1b      	lsrs	r3, r3, #20
10001256:	b259      	sxtb	r1, r3
10001258:	4b18      	ldr	r3, [pc, #96]	; (100012bc <irq_add_tail_to_free_list+0x90>)
1000125a:	689d      	ldr	r5, [r3, #8]
1000125c:	0093      	lsls	r3, r2, #2
1000125e:	58ea      	ldr	r2, [r5, r3]
10001260:	42a2      	cmp	r2, r4
10001262:	d015      	beq.n	10001290 <irq_add_tail_to_free_list+0x64>
10001264:	4a14      	ldr	r2, [pc, #80]	; (100012b8 <irq_add_tail_to_free_list+0x8c>)
10001266:	2300      	movs	r3, #0
10001268:	2406      	movs	r4, #6
1000126a:	5714      	ldrsb	r4, [r2, r4]
1000126c:	428c      	cmp	r4, r1
1000126e:	d014      	beq.n	1000129a <irq_add_tail_to_free_list+0x6e>
10001270:	3301      	adds	r3, #1
10001272:	320c      	adds	r2, #12
10001274:	2b04      	cmp	r3, #4
10001276:	d1f7      	bne.n	10001268 <irq_add_tail_to_free_list+0x3c>
10001278:	4b11      	ldr	r3, [pc, #68]	; (100012c0 <irq_add_tail_to_free_list+0x94>)
1000127a:	781a      	ldrb	r2, [r3, #0]
1000127c:	7182      	strb	r2, [r0, #6]
1000127e:	7019      	strb	r1, [r3, #0]
10001280:	f3bf 8f5f 	dmb	sy
10001284:	4b0a      	ldr	r3, [pc, #40]	; (100012b0 <irq_add_tail_to_free_list+0x84>)
10001286:	2200      	movs	r2, #0
10001288:	601a      	str	r2, [r3, #0]
1000128a:	f38c 8810 	msr	PRIMASK, ip
1000128e:	bd70      	pop	{r4, r5, r6, pc}
10001290:	4a0a      	ldr	r2, [pc, #40]	; (100012bc <irq_add_tail_to_free_list+0x90>)
10001292:	6892      	ldr	r2, [r2, #8]
10001294:	4c0b      	ldr	r4, [pc, #44]	; (100012c4 <irq_add_tail_to_free_list+0x98>)
10001296:	50d4      	str	r4, [r2, r3]
10001298:	e7ee      	b.n	10001278 <irq_add_tail_to_free_list+0x4c>
1000129a:	4d07      	ldr	r5, [pc, #28]	; (100012b8 <irq_add_tail_to_free_list+0x8c>)
1000129c:	005a      	lsls	r2, r3, #1
1000129e:	18d4      	adds	r4, r2, r3
100012a0:	00a4      	lsls	r4, r4, #2
100012a2:	192c      	adds	r4, r5, r4
100012a4:	26ff      	movs	r6, #255	; 0xff
100012a6:	71a6      	strb	r6, [r4, #6]
100012a8:	4b07      	ldr	r3, [pc, #28]	; (100012c8 <irq_add_tail_to_free_list+0x9c>)
100012aa:	80a3      	strh	r3, [r4, #4]
100012ac:	e7e4      	b.n	10001278 <irq_add_tail_to_free_list+0x4c>
100012ae:	46c0      	nop			; (mov r8, r8)
100012b0:	d0000124 	.word	0xd0000124
100012b4:	0000aaaa 	.word	0x0000aaaa
100012b8:	2000022c 	.word	0x2000022c
100012bc:	e000ed00 	.word	0xe000ed00
100012c0:	20025ed9 	.word	0x20025ed9
100012c4:	100001cd 	.word	0x100001cd
100012c8:	ffffbd01 	.word	0xffffbd01

100012cc <irq_init_priorities>:
100012cc:	4b08      	ldr	r3, [pc, #32]	; (100012f0 <irq_init_priorities+0x24>)
100012ce:	4a09      	ldr	r2, [pc, #36]	; (100012f4 <irq_init_priorities+0x28>)
100012d0:	6013      	str	r3, [r2, #0]
100012d2:	4a09      	ldr	r2, [pc, #36]	; (100012f8 <irq_init_priorities+0x2c>)
100012d4:	6013      	str	r3, [r2, #0]
100012d6:	4a09      	ldr	r2, [pc, #36]	; (100012fc <irq_init_priorities+0x30>)
100012d8:	6013      	str	r3, [r2, #0]
100012da:	4a09      	ldr	r2, [pc, #36]	; (10001300 <irq_init_priorities+0x34>)
100012dc:	6013      	str	r3, [r2, #0]
100012de:	4a09      	ldr	r2, [pc, #36]	; (10001304 <irq_init_priorities+0x38>)
100012e0:	6013      	str	r3, [r2, #0]
100012e2:	4a09      	ldr	r2, [pc, #36]	; (10001308 <irq_init_priorities+0x3c>)
100012e4:	6013      	str	r3, [r2, #0]
100012e6:	4a09      	ldr	r2, [pc, #36]	; (1000130c <irq_init_priorities+0x40>)
100012e8:	6013      	str	r3, [r2, #0]
100012ea:	4a09      	ldr	r2, [pc, #36]	; (10001310 <irq_init_priorities+0x44>)
100012ec:	6013      	str	r3, [r2, #0]
100012ee:	4770      	bx	lr
100012f0:	80808080 	.word	0x80808080
100012f4:	e000e400 	.word	0xe000e400
100012f8:	e000e404 	.word	0xe000e404
100012fc:	e000e408 	.word	0xe000e408
10001300:	e000e40c 	.word	0xe000e40c
10001304:	e000e410 	.word	0xe000e410
10001308:	e000e414 	.word	0xe000e414
1000130c:	e000e418 	.word	0xe000e418
10001310:	e000e41c 	.word	0xe000e41c

10001314 <lock_init>:
10001314:	4b02      	ldr	r3, [pc, #8]	; (10001320 <lock_init+0xc>)
10001316:	469c      	mov	ip, r3
10001318:	4461      	add	r1, ip
1000131a:	0089      	lsls	r1, r1, #2
1000131c:	6001      	str	r1, [r0, #0]
1000131e:	4770      	bx	lr
10001320:	34000040 	.word	0x34000040

10001324 <mutex_init>:
10001324:	b510      	push	{r4, lr}
10001326:	0004      	movs	r4, r0
10001328:	f7ff fd4e 	bl	10000dc8 <next_striped_spin_lock_num>
1000132c:	0001      	movs	r1, r0
1000132e:	0020      	movs	r0, r4
10001330:	f7ff fff0 	bl	10001314 <lock_init>
10001334:	23ff      	movs	r3, #255	; 0xff
10001336:	7123      	strb	r3, [r4, #4]
10001338:	f3bf 8f5f 	dmb	sy
1000133c:	bd10      	pop	{r4, pc}

1000133e <recursive_mutex_init>:
1000133e:	b510      	push	{r4, lr}
10001340:	0004      	movs	r4, r0
10001342:	f7ff fd41 	bl	10000dc8 <next_striped_spin_lock_num>
10001346:	0001      	movs	r1, r0
10001348:	0020      	movs	r0, r4
1000134a:	f7ff ffe3 	bl	10001314 <lock_init>
1000134e:	23ff      	movs	r3, #255	; 0xff
10001350:	7123      	strb	r3, [r4, #4]
10001352:	2300      	movs	r3, #0
10001354:	7163      	strb	r3, [r4, #5]
10001356:	f3bf 8f5f 	dmb	sy
1000135a:	bd10      	pop	{r4, pc}

1000135c <ph_add_child_node>:
1000135c:	b530      	push	{r4, r5, lr}
1000135e:	6804      	ldr	r4, [r0, #0]
10001360:	0048      	lsls	r0, r1, #1
10001362:	1840      	adds	r0, r0, r1
10001364:	3803      	subs	r0, #3
10001366:	1825      	adds	r5, r4, r0
10001368:	0053      	lsls	r3, r2, #1
1000136a:	189b      	adds	r3, r3, r2
1000136c:	3b03      	subs	r3, #3
1000136e:	18e3      	adds	r3, r4, r3
10001370:	7099      	strb	r1, [r3, #2]
10001372:	5c21      	ldrb	r1, [r4, r0]
10001374:	2900      	cmp	r1, #0
10001376:	d101      	bne.n	1000137c <ph_add_child_node+0x20>
10001378:	702a      	strb	r2, [r5, #0]
1000137a:	bd30      	pop	{r4, r5, pc}
1000137c:	7059      	strb	r1, [r3, #1]
1000137e:	702a      	strb	r2, [r5, #0]
10001380:	e7fb      	b.n	1000137a <ph_add_child_node+0x1e>
	...

10001384 <timer_pool_entry_comparator>:
10001384:	b510      	push	{r4, lr}
10001386:	6883      	ldr	r3, [r0, #8]
10001388:	480a      	ldr	r0, [pc, #40]	; (100013b4 <timer_pool_entry_comparator+0x30>)
1000138a:	4684      	mov	ip, r0
1000138c:	4461      	add	r1, ip
1000138e:	0109      	lsls	r1, r1, #4
10001390:	1859      	adds	r1, r3, r1
10001392:	4462      	add	r2, ip
10001394:	0112      	lsls	r2, r2, #4
10001396:	189a      	adds	r2, r3, r2
10001398:	2001      	movs	r0, #1
1000139a:	6853      	ldr	r3, [r2, #4]
1000139c:	684c      	ldr	r4, [r1, #4]
1000139e:	42a3      	cmp	r3, r4
100013a0:	d801      	bhi.n	100013a6 <timer_pool_entry_comparator+0x22>
100013a2:	d002      	beq.n	100013aa <timer_pool_entry_comparator+0x26>
100013a4:	2000      	movs	r0, #0
100013a6:	b2c0      	uxtb	r0, r0
100013a8:	bd10      	pop	{r4, pc}
100013aa:	6812      	ldr	r2, [r2, #0]
100013ac:	680b      	ldr	r3, [r1, #0]
100013ae:	429a      	cmp	r2, r3
100013b0:	d8f9      	bhi.n	100013a6 <timer_pool_entry_comparator+0x22>
100013b2:	e7f7      	b.n	100013a4 <timer_pool_entry_comparator+0x20>
100013b4:	0fffffff 	.word	0x0fffffff

100013b8 <alarm_pool_post_alloc_init>:
100013b8:	b570      	push	{r4, r5, r6, lr}
100013ba:	0005      	movs	r5, r0
100013bc:	000c      	movs	r4, r1
100013be:	0008      	movs	r0, r1
100013c0:	f000 fbc2 	bl	10001b48 <hardware_alarm_cancel>
100013c4:	4909      	ldr	r1, [pc, #36]	; (100013ec <alarm_pool_post_alloc_init+0x34>)
100013c6:	0020      	movs	r0, r4
100013c8:	f000 fb16 	bl	100019f8 <hardware_alarm_set_callback>
100013cc:	f7ff fcfc 	bl	10000dc8 <next_striped_spin_lock_num>
100013d0:	4b07      	ldr	r3, [pc, #28]	; (100013f0 <alarm_pool_post_alloc_init+0x38>)
100013d2:	469c      	mov	ip, r3
100013d4:	4460      	add	r0, ip
100013d6:	0080      	lsls	r0, r0, #2
100013d8:	6068      	str	r0, [r5, #4]
100013da:	752c      	strb	r4, [r5, #20]
100013dc:	23d0      	movs	r3, #208	; 0xd0
100013de:	061b      	lsls	r3, r3, #24
100013e0:	681b      	ldr	r3, [r3, #0]
100013e2:	756b      	strb	r3, [r5, #21]
100013e4:	00a4      	lsls	r4, r4, #2
100013e6:	4b03      	ldr	r3, [pc, #12]	; (100013f4 <alarm_pool_post_alloc_init+0x3c>)
100013e8:	50e5      	str	r5, [r4, r3]
100013ea:	bd70      	pop	{r4, r5, r6, pc}
100013ec:	10001509 	.word	0x10001509
100013f0:	34000040 	.word	0x34000040
100013f4:	2000049c 	.word	0x2000049c

100013f8 <sleep_until_callback>:
100013f8:	4b0a      	ldr	r3, [pc, #40]	; (10001424 <sleep_until_callback+0x2c>)
100013fa:	681a      	ldr	r2, [r3, #0]
100013fc:	f3ef 8110 	mrs	r1, PRIMASK
10001400:	b672      	cpsid	i
10001402:	6813      	ldr	r3, [r2, #0]
10001404:	2b00      	cmp	r3, #0
10001406:	d0fc      	beq.n	10001402 <sleep_until_callback+0xa>
10001408:	f3bf 8f5f 	dmb	sy
1000140c:	4b05      	ldr	r3, [pc, #20]	; (10001424 <sleep_until_callback+0x2c>)
1000140e:	681b      	ldr	r3, [r3, #0]
10001410:	f3bf 8f5f 	dmb	sy
10001414:	2200      	movs	r2, #0
10001416:	601a      	str	r2, [r3, #0]
10001418:	f381 8810 	msr	PRIMASK, r1
1000141c:	bf40      	sev
1000141e:	2000      	movs	r0, #0
10001420:	2100      	movs	r1, #0
10001422:	4770      	bx	lr
10001424:	200006bc 	.word	0x200006bc

10001428 <add_alarm_under_lock>:
10001428:	b5f0      	push	{r4, r5, r6, r7, lr}
1000142a:	46d6      	mov	lr, sl
1000142c:	b500      	push	{lr}
1000142e:	b082      	sub	sp, #8
10001430:	0005      	movs	r5, r0
10001432:	9200      	str	r2, [sp, #0]
10001434:	9301      	str	r3, [sp, #4]
10001436:	ab0a      	add	r3, sp, #40	; 0x28
10001438:	781c      	ldrb	r4, [r3, #0]
1000143a:	ab0b      	add	r3, sp, #44	; 0x2c
1000143c:	781f      	ldrb	r7, [r3, #0]
1000143e:	2c00      	cmp	r4, #0
10001440:	d031      	beq.n	100014a6 <add_alarm_under_lock+0x7e>
10001442:	4b30      	ldr	r3, [pc, #192]	; (10001504 <add_alarm_under_lock+0xdc>)
10001444:	18e3      	adds	r3, r4, r3
10001446:	011b      	lsls	r3, r3, #4
10001448:	68aa      	ldr	r2, [r5, #8]
1000144a:	4694      	mov	ip, r2
1000144c:	4463      	add	r3, ip
1000144e:	9a00      	ldr	r2, [sp, #0]
10001450:	601a      	str	r2, [r3, #0]
10001452:	9a01      	ldr	r2, [sp, #4]
10001454:	605a      	str	r2, [r3, #4]
10001456:	9a08      	ldr	r2, [sp, #32]
10001458:	609a      	str	r2, [r3, #8]
1000145a:	9a09      	ldr	r2, [sp, #36]	; 0x24
1000145c:	60da      	str	r2, [r3, #12]
1000145e:	682e      	ldr	r6, [r5, #0]
10001460:	0063      	lsls	r3, r4, #1
10001462:	191b      	adds	r3, r3, r4
10001464:	3b03      	subs	r3, #3
10001466:	6832      	ldr	r2, [r6, #0]
10001468:	4694      	mov	ip, r2
1000146a:	4463      	add	r3, ip
1000146c:	2200      	movs	r2, #0
1000146e:	709a      	strb	r2, [r3, #2]
10001470:	705a      	strb	r2, [r3, #1]
10001472:	701a      	strb	r2, [r3, #0]
10001474:	7b73      	ldrb	r3, [r6, #13]
10001476:	469a      	mov	sl, r3
10001478:	2b00      	cmp	r3, #0
1000147a:	d02e      	beq.n	100014da <add_alarm_under_lock+0xb2>
1000147c:	0022      	movs	r2, r4
1000147e:	4651      	mov	r1, sl
10001480:	68b0      	ldr	r0, [r6, #8]
10001482:	6873      	ldr	r3, [r6, #4]
10001484:	4798      	blx	r3
10001486:	2800      	cmp	r0, #0
10001488:	d022      	beq.n	100014d0 <add_alarm_under_lock+0xa8>
1000148a:	0022      	movs	r2, r4
1000148c:	4651      	mov	r1, sl
1000148e:	0030      	movs	r0, r6
10001490:	f7ff ff64 	bl	1000135c <ph_add_child_node>
10001494:	4653      	mov	r3, sl
10001496:	7373      	strb	r3, [r6, #13]
10001498:	45a2      	cmp	sl, r4
1000149a:	d01f      	beq.n	100014dc <add_alarm_under_lock+0xb4>
1000149c:	0020      	movs	r0, r4
1000149e:	b002      	add	sp, #8
100014a0:	bc80      	pop	{r7}
100014a2:	46ba      	mov	sl, r7
100014a4:	bdf0      	pop	{r4, r5, r6, r7, pc}
100014a6:	6802      	ldr	r2, [r0, #0]
100014a8:	7b90      	ldrb	r0, [r2, #14]
100014aa:	2800      	cmp	r0, #0
100014ac:	d0f7      	beq.n	1000149e <add_alarm_under_lock+0x76>
100014ae:	0043      	lsls	r3, r0, #1
100014b0:	181b      	adds	r3, r3, r0
100014b2:	3b03      	subs	r3, #3
100014b4:	6811      	ldr	r1, [r2, #0]
100014b6:	468c      	mov	ip, r1
100014b8:	4463      	add	r3, ip
100014ba:	7859      	ldrb	r1, [r3, #1]
100014bc:	7391      	strb	r1, [r2, #14]
100014be:	2900      	cmp	r1, #0
100014c0:	d100      	bne.n	100014c4 <add_alarm_under_lock+0x9c>
100014c2:	73d1      	strb	r1, [r2, #15]
100014c4:	2200      	movs	r2, #0
100014c6:	709a      	strb	r2, [r3, #2]
100014c8:	705a      	strb	r2, [r3, #1]
100014ca:	701a      	strb	r2, [r3, #0]
100014cc:	0004      	movs	r4, r0
100014ce:	e7b8      	b.n	10001442 <add_alarm_under_lock+0x1a>
100014d0:	4652      	mov	r2, sl
100014d2:	0021      	movs	r1, r4
100014d4:	0030      	movs	r0, r6
100014d6:	f7ff ff41 	bl	1000135c <ph_add_child_node>
100014da:	7374      	strb	r4, [r6, #13]
100014dc:	7d28      	ldrb	r0, [r5, #20]
100014de:	9a00      	ldr	r2, [sp, #0]
100014e0:	9b01      	ldr	r3, [sp, #4]
100014e2:	f000 fad1 	bl	10001a88 <hardware_alarm_set_target>
100014e6:	1e06      	subs	r6, r0, #0
100014e8:	d001      	beq.n	100014ee <add_alarm_under_lock+0xc6>
100014ea:	2f00      	cmp	r7, #0
100014ec:	d005      	beq.n	100014fa <add_alarm_under_lock+0xd2>
100014ee:	0020      	movs	r0, r4
100014f0:	9b0c      	ldr	r3, [sp, #48]	; 0x30
100014f2:	2b00      	cmp	r3, #0
100014f4:	d0d3      	beq.n	1000149e <add_alarm_under_lock+0x76>
100014f6:	701e      	strb	r6, [r3, #0]
100014f8:	e7d1      	b.n	1000149e <add_alarm_under_lock+0x76>
100014fa:	6828      	ldr	r0, [r5, #0]
100014fc:	0021      	movs	r1, r4
100014fe:	f000 fbf3 	bl	10001ce8 <ph_remove_and_free_node>
10001502:	e7f4      	b.n	100014ee <add_alarm_under_lock+0xc6>
10001504:	0fffffff 	.word	0x0fffffff

10001508 <alarm_pool_alarm_callback>:
10001508:	b5f0      	push	{r4, r5, r6, r7, lr}
1000150a:	46de      	mov	lr, fp
1000150c:	4657      	mov	r7, sl
1000150e:	464e      	mov	r6, r9
10001510:	4645      	mov	r5, r8
10001512:	b5e0      	push	{r5, r6, r7, lr}
10001514:	b08d      	sub	sp, #52	; 0x34
10001516:	900b      	str	r0, [sp, #44]	; 0x2c
10001518:	2300      	movs	r3, #0
1000151a:	469b      	mov	fp, r3
1000151c:	0082      	lsls	r2, r0, #2
1000151e:	4b70      	ldr	r3, [pc, #448]	; (100016e0 <alarm_pool_alarm_callback+0x1d8>)
10001520:	58d3      	ldr	r3, [r2, r3]
10001522:	469a      	mov	sl, r3
10001524:	2300      	movs	r3, #0
10001526:	4699      	mov	r9, r3
10001528:	4654      	mov	r4, sl
1000152a:	e02b      	b.n	10001584 <alarm_pool_alarm_callback+0x7c>
1000152c:	2900      	cmp	r1, #0
1000152e:	d101      	bne.n	10001534 <alarm_pool_alarm_callback+0x2c>
10001530:	2800      	cmp	r0, #0
10001532:	d148      	bne.n	100015c6 <alarm_pool_alarm_callback+0xbe>
10001534:	4649      	mov	r1, r9
10001536:	9806      	ldr	r0, [sp, #24]
10001538:	f000 fbcc 	bl	10001cd4 <ph_remove_head>
1000153c:	682a      	ldr	r2, [r5, #0]
1000153e:	686b      	ldr	r3, [r5, #4]
10001540:	9206      	str	r2, [sp, #24]
10001542:	9307      	str	r3, [sp, #28]
10001544:	68ab      	ldr	r3, [r5, #8]
10001546:	930a      	str	r3, [sp, #40]	; 0x28
10001548:	68ed      	ldr	r5, [r5, #12]
1000154a:	68e3      	ldr	r3, [r4, #12]
1000154c:	4453      	add	r3, sl
1000154e:	3b01      	subs	r3, #1
10001550:	781b      	ldrb	r3, [r3, #0]
10001552:	469b      	mov	fp, r3
10001554:	021b      	lsls	r3, r3, #8
10001556:	4303      	orrs	r3, r0
10001558:	6123      	str	r3, [r4, #16]
1000155a:	4648      	mov	r0, r9
1000155c:	e005      	b.n	1000156a <alarm_pool_alarm_callback+0x62>
1000155e:	464d      	mov	r5, r9
10001560:	2300      	movs	r3, #0
10001562:	9306      	str	r3, [sp, #24]
10001564:	9307      	str	r3, [sp, #28]
10001566:	950a      	str	r5, [sp, #40]	; 0x28
10001568:	4648      	mov	r0, r9
1000156a:	6863      	ldr	r3, [r4, #4]
1000156c:	f3bf 8f5f 	dmb	sy
10001570:	464a      	mov	r2, r9
10001572:	601a      	str	r2, [r3, #0]
10001574:	f388 8810 	msr	PRIMASK, r8
10001578:	9e0a      	ldr	r6, [sp, #40]	; 0x28
1000157a:	2e00      	cmp	r6, #0
1000157c:	d12c      	bne.n	100015d8 <alarm_pool_alarm_callback+0xd0>
1000157e:	2800      	cmp	r0, #0
10001580:	d100      	bne.n	10001584 <alarm_pool_alarm_callback+0x7c>
10001582:	e0a5      	b.n	100016d0 <alarm_pool_alarm_callback+0x1c8>
10001584:	f000 fa2e 	bl	100019e4 <time_us_64>
10001588:	0006      	movs	r6, r0
1000158a:	000f      	movs	r7, r1
1000158c:	6862      	ldr	r2, [r4, #4]
1000158e:	f3ef 8810 	mrs	r8, PRIMASK
10001592:	b672      	cpsid	i
10001594:	6813      	ldr	r3, [r2, #0]
10001596:	2b00      	cmp	r3, #0
10001598:	d0fc      	beq.n	10001594 <alarm_pool_alarm_callback+0x8c>
1000159a:	f3bf 8f5f 	dmb	sy
1000159e:	6823      	ldr	r3, [r4, #0]
100015a0:	9306      	str	r3, [sp, #24]
100015a2:	7b5b      	ldrb	r3, [r3, #13]
100015a4:	469a      	mov	sl, r3
100015a6:	2b00      	cmp	r3, #0
100015a8:	d0d9      	beq.n	1000155e <alarm_pool_alarm_callback+0x56>
100015aa:	4d4e      	ldr	r5, [pc, #312]	; (100016e4 <alarm_pool_alarm_callback+0x1dc>)
100015ac:	4455      	add	r5, sl
100015ae:	012d      	lsls	r5, r5, #4
100015b0:	68a3      	ldr	r3, [r4, #8]
100015b2:	469c      	mov	ip, r3
100015b4:	4465      	add	r5, ip
100015b6:	682a      	ldr	r2, [r5, #0]
100015b8:	686b      	ldr	r3, [r5, #4]
100015ba:	0010      	movs	r0, r2
100015bc:	0019      	movs	r1, r3
100015be:	1b80      	subs	r0, r0, r6
100015c0:	41b9      	sbcs	r1, r7
100015c2:	2900      	cmp	r1, #0
100015c4:	ddb2      	ble.n	1000152c <alarm_pool_alarm_callback+0x24>
100015c6:	980b      	ldr	r0, [sp, #44]	; 0x2c
100015c8:	f000 fa5e 	bl	10001a88 <hardware_alarm_set_target>
100015cc:	464d      	mov	r5, r9
100015ce:	2300      	movs	r3, #0
100015d0:	9306      	str	r3, [sp, #24]
100015d2:	9307      	str	r3, [sp, #28]
100015d4:	950a      	str	r5, [sp, #40]	; 0x28
100015d6:	e7c8      	b.n	1000156a <alarm_pool_alarm_callback+0x62>
100015d8:	465b      	mov	r3, fp
100015da:	0218      	lsls	r0, r3, #8
100015dc:	4653      	mov	r3, sl
100015de:	4318      	orrs	r0, r3
100015e0:	0029      	movs	r1, r5
100015e2:	47b0      	blx	r6
100015e4:	9008      	str	r0, [sp, #32]
100015e6:	9109      	str	r1, [sp, #36]	; 0x24
100015e8:	6862      	ldr	r2, [r4, #4]
100015ea:	f3ef 8810 	mrs	r8, PRIMASK
100015ee:	b672      	cpsid	i
100015f0:	4647      	mov	r7, r8
100015f2:	6813      	ldr	r3, [r2, #0]
100015f4:	2b00      	cmp	r3, #0
100015f6:	d0fc      	beq.n	100015f2 <alarm_pool_alarm_callback+0xea>
100015f8:	960a      	str	r6, [sp, #40]	; 0x28
100015fa:	46b8      	mov	r8, r7
100015fc:	f3bf 8f5f 	dmb	sy
10001600:	9908      	ldr	r1, [sp, #32]
10001602:	9a09      	ldr	r2, [sp, #36]	; 0x24
10001604:	2a00      	cmp	r2, #0
10001606:	db28      	blt.n	1000165a <alarm_pool_alarm_callback+0x152>
10001608:	9b09      	ldr	r3, [sp, #36]	; 0x24
1000160a:	2b00      	cmp	r3, #0
1000160c:	dd40      	ble.n	10001690 <alarm_pool_alarm_callback+0x188>
1000160e:	6923      	ldr	r3, [r4, #16]
10001610:	2b00      	cmp	r3, #0
10001612:	d144      	bne.n	1000169e <alarm_pool_alarm_callback+0x196>
10001614:	6823      	ldr	r3, [r4, #0]
10001616:	7bd9      	ldrb	r1, [r3, #15]
10001618:	2900      	cmp	r1, #0
1000161a:	d007      	beq.n	1000162c <alarm_pool_alarm_callback+0x124>
1000161c:	004a      	lsls	r2, r1, #1
1000161e:	1852      	adds	r2, r2, r1
10001620:	6819      	ldr	r1, [r3, #0]
10001622:	468c      	mov	ip, r1
10001624:	4462      	add	r2, ip
10001626:	3a03      	subs	r2, #3
10001628:	4651      	mov	r1, sl
1000162a:	7051      	strb	r1, [r2, #1]
1000162c:	7b9a      	ldrb	r2, [r3, #14]
1000162e:	2a00      	cmp	r2, #0
10001630:	d101      	bne.n	10001636 <alarm_pool_alarm_callback+0x12e>
10001632:	4652      	mov	r2, sl
10001634:	739a      	strb	r2, [r3, #14]
10001636:	4652      	mov	r2, sl
10001638:	73da      	strb	r2, [r3, #15]
1000163a:	4653      	mov	r3, sl
1000163c:	3b01      	subs	r3, #1
1000163e:	68e1      	ldr	r1, [r4, #12]
10001640:	5cca      	ldrb	r2, [r1, r3]
10001642:	3201      	adds	r2, #1
10001644:	54ca      	strb	r2, [r1, r3]
10001646:	464b      	mov	r3, r9
10001648:	6123      	str	r3, [r4, #16]
1000164a:	6863      	ldr	r3, [r4, #4]
1000164c:	f3bf 8f5f 	dmb	sy
10001650:	464a      	mov	r2, r9
10001652:	601a      	str	r2, [r3, #0]
10001654:	f388 8810 	msr	PRIMASK, r8
10001658:	e794      	b.n	10001584 <alarm_pool_alarm_callback+0x7c>
1000165a:	6923      	ldr	r3, [r4, #16]
1000165c:	2b00      	cmp	r3, #0
1000165e:	d0d9      	beq.n	10001614 <alarm_pool_alarm_callback+0x10c>
10001660:	9e06      	ldr	r6, [sp, #24]
10001662:	9f07      	ldr	r7, [sp, #28]
10001664:	1a76      	subs	r6, r6, r1
10001666:	4197      	sbcs	r7, r2
10001668:	0032      	movs	r2, r6
1000166a:	1e3b      	subs	r3, r7, #0
1000166c:	db0c      	blt.n	10001688 <alarm_pool_alarm_callback+0x180>
1000166e:	4649      	mov	r1, r9
10001670:	9104      	str	r1, [sp, #16]
10001672:	2101      	movs	r1, #1
10001674:	9103      	str	r1, [sp, #12]
10001676:	4651      	mov	r1, sl
10001678:	9102      	str	r1, [sp, #8]
1000167a:	9501      	str	r5, [sp, #4]
1000167c:	990a      	ldr	r1, [sp, #40]	; 0x28
1000167e:	9100      	str	r1, [sp, #0]
10001680:	0020      	movs	r0, r4
10001682:	f7ff fed1 	bl	10001428 <add_alarm_under_lock>
10001686:	e7de      	b.n	10001646 <alarm_pool_alarm_callback+0x13e>
10001688:	2201      	movs	r2, #1
1000168a:	4252      	negs	r2, r2
1000168c:	4b16      	ldr	r3, [pc, #88]	; (100016e8 <alarm_pool_alarm_callback+0x1e0>)
1000168e:	e7ee      	b.n	1000166e <alarm_pool_alarm_callback+0x166>
10001690:	9a08      	ldr	r2, [sp, #32]
10001692:	9b09      	ldr	r3, [sp, #36]	; 0x24
10001694:	2b00      	cmp	r3, #0
10001696:	d1bd      	bne.n	10001614 <alarm_pool_alarm_callback+0x10c>
10001698:	2a00      	cmp	r2, #0
1000169a:	d1b8      	bne.n	1000160e <alarm_pool_alarm_callback+0x106>
1000169c:	e7ba      	b.n	10001614 <alarm_pool_alarm_callback+0x10c>
1000169e:	f000 f9a1 	bl	100019e4 <time_us_64>
100016a2:	9a08      	ldr	r2, [sp, #32]
100016a4:	9b09      	ldr	r3, [sp, #36]	; 0x24
100016a6:	1812      	adds	r2, r2, r0
100016a8:	414b      	adcs	r3, r1
100016aa:	2b00      	cmp	r3, #0
100016ac:	db0c      	blt.n	100016c8 <alarm_pool_alarm_callback+0x1c0>
100016ae:	4649      	mov	r1, r9
100016b0:	9104      	str	r1, [sp, #16]
100016b2:	2101      	movs	r1, #1
100016b4:	9103      	str	r1, [sp, #12]
100016b6:	4651      	mov	r1, sl
100016b8:	9102      	str	r1, [sp, #8]
100016ba:	9501      	str	r5, [sp, #4]
100016bc:	990a      	ldr	r1, [sp, #40]	; 0x28
100016be:	9100      	str	r1, [sp, #0]
100016c0:	0020      	movs	r0, r4
100016c2:	f7ff feb1 	bl	10001428 <add_alarm_under_lock>
100016c6:	e7be      	b.n	10001646 <alarm_pool_alarm_callback+0x13e>
100016c8:	2201      	movs	r2, #1
100016ca:	4252      	negs	r2, r2
100016cc:	4b06      	ldr	r3, [pc, #24]	; (100016e8 <alarm_pool_alarm_callback+0x1e0>)
100016ce:	e7ee      	b.n	100016ae <alarm_pool_alarm_callback+0x1a6>
100016d0:	b00d      	add	sp, #52	; 0x34
100016d2:	bcf0      	pop	{r4, r5, r6, r7}
100016d4:	46bb      	mov	fp, r7
100016d6:	46b2      	mov	sl, r6
100016d8:	46a9      	mov	r9, r5
100016da:	46a0      	mov	r8, r4
100016dc:	bdf0      	pop	{r4, r5, r6, r7, pc}
100016de:	46c0      	nop			; (mov r8, r8)
100016e0:	2000049c 	.word	0x2000049c
100016e4:	0fffffff 	.word	0x0fffffff
100016e8:	7fffffff 	.word	0x7fffffff

100016ec <alarm_pool_init_default>:
100016ec:	b510      	push	{r4, lr}
100016ee:	4b0c      	ldr	r3, [pc, #48]	; (10001720 <alarm_pool_init_default+0x34>)
100016f0:	685b      	ldr	r3, [r3, #4]
100016f2:	2b00      	cmp	r3, #0
100016f4:	d004      	beq.n	10001700 <alarm_pool_init_default+0x14>
100016f6:	210a      	movs	r1, #10
100016f8:	480a      	ldr	r0, [pc, #40]	; (10001724 <alarm_pool_init_default+0x38>)
100016fa:	f7ff fe0b 	bl	10001314 <lock_init>
100016fe:	bd10      	pop	{r4, pc}
10001700:	4c07      	ldr	r4, [pc, #28]	; (10001720 <alarm_pool_init_default+0x34>)
10001702:	0023      	movs	r3, r4
10001704:	4a08      	ldr	r2, [pc, #32]	; (10001728 <alarm_pool_init_default+0x3c>)
10001706:	2110      	movs	r1, #16
10001708:	6820      	ldr	r0, [r4, #0]
1000170a:	f000 fa89 	bl	10001c20 <ph_post_alloc_init>
1000170e:	2003      	movs	r0, #3
10001710:	f000 f95c 	bl	100019cc <hardware_alarm_claim>
10001714:	2103      	movs	r1, #3
10001716:	0020      	movs	r0, r4
10001718:	f7ff fe4e 	bl	100013b8 <alarm_pool_post_alloc_init>
1000171c:	e7eb      	b.n	100016f6 <alarm_pool_init_default+0xa>
1000171e:	46c0      	nop			; (mov r8, r8)
10001720:	20000274 	.word	0x20000274
10001724:	200006bc 	.word	0x200006bc
10001728:	10001385 	.word	0x10001385

1000172c <alarm_pool_add_alarm_at>:
1000172c:	b5f0      	push	{r4, r5, r6, r7, lr}
1000172e:	46de      	mov	lr, fp
10001730:	4657      	mov	r7, sl
10001732:	464e      	mov	r6, r9
10001734:	4645      	mov	r5, r8
10001736:	b5e0      	push	{r5, r6, r7, lr}
10001738:	b08b      	sub	sp, #44	; 0x2c
1000173a:	4681      	mov	r9, r0
1000173c:	0014      	movs	r4, r2
1000173e:	001d      	movs	r5, r3
10001740:	9b14      	ldr	r3, [sp, #80]	; 0x50
10001742:	469b      	mov	fp, r3
10001744:	9b15      	ldr	r3, [sp, #84]	; 0x54
10001746:	469a      	mov	sl, r3
10001748:	ab16      	add	r3, sp, #88	; 0x58
1000174a:	781b      	ldrb	r3, [r3, #0]
1000174c:	9307      	str	r3, [sp, #28]
1000174e:	231f      	movs	r3, #31
10001750:	aa02      	add	r2, sp, #8
10001752:	4694      	mov	ip, r2
10001754:	4463      	add	r3, ip
10001756:	2200      	movs	r2, #0
10001758:	701a      	strb	r2, [r3, #0]
1000175a:	2300      	movs	r3, #0
1000175c:	4698      	mov	r8, r3
1000175e:	e025      	b.n	100017ac <alarm_pool_add_alarm_at+0x80>
10001760:	2401      	movs	r4, #1
10001762:	4264      	negs	r4, r4
10001764:	4d2f      	ldr	r5, [pc, #188]	; (10001824 <alarm_pool_add_alarm_at+0xf8>)
10001766:	e021      	b.n	100017ac <alarm_pool_add_alarm_at+0x80>
10001768:	f000 f93c 	bl	100019e4 <time_us_64>
1000176c:	0034      	movs	r4, r6
1000176e:	003d      	movs	r5, r7
10001770:	1824      	adds	r4, r4, r0
10001772:	414d      	adcs	r5, r1
10001774:	2d00      	cmp	r5, #0
10001776:	da19      	bge.n	100017ac <alarm_pool_add_alarm_at+0x80>
10001778:	2401      	movs	r4, #1
1000177a:	4264      	negs	r4, r4
1000177c:	4d29      	ldr	r5, [pc, #164]	; (10001824 <alarm_pool_add_alarm_at+0xf8>)
1000177e:	e015      	b.n	100017ac <alarm_pool_add_alarm_at+0x80>
10001780:	2001      	movs	r0, #1
10001782:	4240      	negs	r0, r0
10001784:	e045      	b.n	10001812 <alarm_pool_add_alarm_at+0xe6>
10001786:	2000      	movs	r0, #0
10001788:	e043      	b.n	10001812 <alarm_pool_add_alarm_at+0xe6>
1000178a:	9b07      	ldr	r3, [sp, #28]
1000178c:	2b00      	cmp	r3, #0
1000178e:	d047      	beq.n	10001820 <alarm_pool_add_alarm_at+0xf4>
10001790:	4651      	mov	r1, sl
10001792:	4640      	mov	r0, r8
10001794:	47d8      	blx	fp
10001796:	0006      	movs	r6, r0
10001798:	000f      	movs	r7, r1
1000179a:	0003      	movs	r3, r0
1000179c:	430b      	orrs	r3, r1
1000179e:	d0f2      	beq.n	10001786 <alarm_pool_add_alarm_at+0x5a>
100017a0:	2900      	cmp	r1, #0
100017a2:	dae1      	bge.n	10001768 <alarm_pool_add_alarm_at+0x3c>
100017a4:	1ba4      	subs	r4, r4, r6
100017a6:	41bd      	sbcs	r5, r7
100017a8:	2d00      	cmp	r5, #0
100017aa:	dbd9      	blt.n	10001760 <alarm_pool_add_alarm_at+0x34>
100017ac:	464b      	mov	r3, r9
100017ae:	685a      	ldr	r2, [r3, #4]
100017b0:	f3ef 8610 	mrs	r6, PRIMASK
100017b4:	b672      	cpsid	i
100017b6:	6813      	ldr	r3, [r2, #0]
100017b8:	2b00      	cmp	r3, #0
100017ba:	d0fc      	beq.n	100017b6 <alarm_pool_add_alarm_at+0x8a>
100017bc:	f3bf 8f5f 	dmb	sy
100017c0:	231f      	movs	r3, #31
100017c2:	aa02      	add	r2, sp, #8
100017c4:	4694      	mov	ip, r2
100017c6:	4463      	add	r3, ip
100017c8:	9304      	str	r3, [sp, #16]
100017ca:	4643      	mov	r3, r8
100017cc:	9303      	str	r3, [sp, #12]
100017ce:	9302      	str	r3, [sp, #8]
100017d0:	4653      	mov	r3, sl
100017d2:	9301      	str	r3, [sp, #4]
100017d4:	465b      	mov	r3, fp
100017d6:	9300      	str	r3, [sp, #0]
100017d8:	0022      	movs	r2, r4
100017da:	002b      	movs	r3, r5
100017dc:	4648      	mov	r0, r9
100017de:	f7ff fe23 	bl	10001428 <add_alarm_under_lock>
100017e2:	0002      	movs	r2, r0
100017e4:	1e03      	subs	r3, r0, #0
100017e6:	d004      	beq.n	100017f2 <alarm_pool_add_alarm_at+0xc6>
100017e8:	464b      	mov	r3, r9
100017ea:	68db      	ldr	r3, [r3, #12]
100017ec:	181b      	adds	r3, r3, r0
100017ee:	3b01      	subs	r3, #1
100017f0:	781b      	ldrb	r3, [r3, #0]
100017f2:	4649      	mov	r1, r9
100017f4:	6849      	ldr	r1, [r1, #4]
100017f6:	f3bf 8f5f 	dmb	sy
100017fa:	4647      	mov	r7, r8
100017fc:	600f      	str	r7, [r1, #0]
100017fe:	f386 8810 	msr	PRIMASK, r6
10001802:	2a00      	cmp	r2, #0
10001804:	d0bc      	beq.n	10001780 <alarm_pool_add_alarm_at+0x54>
10001806:	aa02      	add	r2, sp, #8
10001808:	7fd2      	ldrb	r2, [r2, #31]
1000180a:	2a00      	cmp	r2, #0
1000180c:	d1bd      	bne.n	1000178a <alarm_pool_add_alarm_at+0x5e>
1000180e:	021b      	lsls	r3, r3, #8
10001810:	4318      	orrs	r0, r3
10001812:	b00b      	add	sp, #44	; 0x2c
10001814:	bcf0      	pop	{r4, r5, r6, r7}
10001816:	46bb      	mov	fp, r7
10001818:	46b2      	mov	sl, r6
1000181a:	46a9      	mov	r9, r5
1000181c:	46a0      	mov	r8, r4
1000181e:	bdf0      	pop	{r4, r5, r6, r7, pc}
10001820:	2000      	movs	r0, #0
10001822:	e7f6      	b.n	10001812 <alarm_pool_add_alarm_at+0xe6>
10001824:	7fffffff 	.word	0x7fffffff

10001828 <alarm_pool_cancel_alarm>:
10001828:	b570      	push	{r4, r5, r6, lr}
1000182a:	0004      	movs	r4, r0
1000182c:	6842      	ldr	r2, [r0, #4]
1000182e:	f3ef 8510 	mrs	r5, PRIMASK
10001832:	b672      	cpsid	i
10001834:	6813      	ldr	r3, [r2, #0]
10001836:	2b00      	cmp	r3, #0
10001838:	d0fc      	beq.n	10001834 <alarm_pool_cancel_alarm+0xc>
1000183a:	f3bf 8f5f 	dmb	sy
1000183e:	b2ce      	uxtb	r6, r1
10001840:	6822      	ldr	r2, [r4, #0]
10001842:	7b53      	ldrb	r3, [r2, #13]
10001844:	42b3      	cmp	r3, r6
10001846:	d011      	beq.n	1000186c <alarm_pool_cancel_alarm+0x44>
10001848:	23ff      	movs	r3, #255	; 0xff
1000184a:	400b      	ands	r3, r1
1000184c:	0058      	lsls	r0, r3, #1
1000184e:	18c3      	adds	r3, r0, r3
10001850:	6810      	ldr	r0, [r2, #0]
10001852:	4684      	mov	ip, r0
10001854:	4463      	add	r3, ip
10001856:	3b03      	subs	r3, #3
10001858:	789b      	ldrb	r3, [r3, #2]
1000185a:	2b00      	cmp	r3, #0
1000185c:	d106      	bne.n	1000186c <alarm_pool_cancel_alarm+0x44>
1000185e:	2000      	movs	r0, #0
10001860:	6923      	ldr	r3, [r4, #16]
10001862:	428b      	cmp	r3, r1
10001864:	d10e      	bne.n	10001884 <alarm_pool_cancel_alarm+0x5c>
10001866:	2300      	movs	r3, #0
10001868:	6123      	str	r3, [r4, #16]
1000186a:	e00b      	b.n	10001884 <alarm_pool_cancel_alarm+0x5c>
1000186c:	23ff      	movs	r3, #255	; 0xff
1000186e:	400b      	ands	r3, r1
10001870:	68e0      	ldr	r0, [r4, #12]
10001872:	4684      	mov	ip, r0
10001874:	4463      	add	r3, ip
10001876:	3b01      	subs	r3, #1
10001878:	0a09      	lsrs	r1, r1, #8
1000187a:	781b      	ldrb	r3, [r3, #0]
1000187c:	b2c9      	uxtb	r1, r1
1000187e:	2000      	movs	r0, #0
10001880:	428b      	cmp	r3, r1
10001882:	d007      	beq.n	10001894 <alarm_pool_cancel_alarm+0x6c>
10001884:	6863      	ldr	r3, [r4, #4]
10001886:	f3bf 8f5f 	dmb	sy
1000188a:	2200      	movs	r2, #0
1000188c:	601a      	str	r2, [r3, #0]
1000188e:	f385 8810 	msr	PRIMASK, r5
10001892:	bd70      	pop	{r4, r5, r6, pc}
10001894:	0031      	movs	r1, r6
10001896:	0010      	movs	r0, r2
10001898:	f000 fa26 	bl	10001ce8 <ph_remove_and_free_node>
1000189c:	e7f2      	b.n	10001884 <alarm_pool_cancel_alarm+0x5c>
	...

100018a0 <best_effort_wfe_or_timeout>:
100018a0:	b570      	push	{r4, r5, r6, lr}
100018a2:	b084      	sub	sp, #16
100018a4:	0006      	movs	r6, r0
100018a6:	000d      	movs	r5, r1
100018a8:	f3ef 8305 	mrs	r3, IPSR
100018ac:	2b00      	cmp	r3, #0
100018ae:	d00c      	beq.n	100018ca <best_effort_wfe_or_timeout+0x2a>
100018b0:	4b1c      	ldr	r3, [pc, #112]	; (10001924 <best_effort_wfe_or_timeout+0x84>)
100018b2:	6a59      	ldr	r1, [r3, #36]	; 0x24
100018b4:	2000      	movs	r0, #0
100018b6:	428d      	cmp	r5, r1
100018b8:	d820      	bhi.n	100018fc <best_effort_wfe_or_timeout+0x5c>
100018ba:	6a9b      	ldr	r3, [r3, #40]	; 0x28
100018bc:	3001      	adds	r0, #1
100018be:	42b3      	cmp	r3, r6
100018c0:	d21c      	bcs.n	100018fc <best_effort_wfe_or_timeout+0x5c>
100018c2:	1a68      	subs	r0, r5, r1
100018c4:	1e43      	subs	r3, r0, #1
100018c6:	4198      	sbcs	r0, r3
100018c8:	e018      	b.n	100018fc <best_effort_wfe_or_timeout+0x5c>
100018ca:	2300      	movs	r3, #0
100018cc:	9302      	str	r3, [sp, #8]
100018ce:	9301      	str	r3, [sp, #4]
100018d0:	4b15      	ldr	r3, [pc, #84]	; (10001928 <best_effort_wfe_or_timeout+0x88>)
100018d2:	9300      	str	r3, [sp, #0]
100018d4:	0002      	movs	r2, r0
100018d6:	000b      	movs	r3, r1
100018d8:	4814      	ldr	r0, [pc, #80]	; (1000192c <best_effort_wfe_or_timeout+0x8c>)
100018da:	f7ff ff27 	bl	1000172c <alarm_pool_add_alarm_at>
100018de:	1e01      	subs	r1, r0, #0
100018e0:	dc0e      	bgt.n	10001900 <best_effort_wfe_or_timeout+0x60>
100018e2:	4b10      	ldr	r3, [pc, #64]	; (10001924 <best_effort_wfe_or_timeout+0x84>)
100018e4:	6a58      	ldr	r0, [r3, #36]	; 0x24
100018e6:	2400      	movs	r4, #0
100018e8:	4285      	cmp	r5, r0
100018ea:	d806      	bhi.n	100018fa <best_effort_wfe_or_timeout+0x5a>
100018ec:	6a9b      	ldr	r3, [r3, #40]	; 0x28
100018ee:	3401      	adds	r4, #1
100018f0:	42b3      	cmp	r3, r6
100018f2:	d202      	bcs.n	100018fa <best_effort_wfe_or_timeout+0x5a>
100018f4:	1a2c      	subs	r4, r5, r0
100018f6:	1e63      	subs	r3, r4, #1
100018f8:	419c      	sbcs	r4, r3
100018fa:	0020      	movs	r0, r4
100018fc:	b004      	add	sp, #16
100018fe:	bd70      	pop	{r4, r5, r6, pc}
10001900:	bf20      	wfe
10001902:	480a      	ldr	r0, [pc, #40]	; (1000192c <best_effort_wfe_or_timeout+0x8c>)
10001904:	f7ff ff90 	bl	10001828 <alarm_pool_cancel_alarm>
10001908:	4b06      	ldr	r3, [pc, #24]	; (10001924 <best_effort_wfe_or_timeout+0x84>)
1000190a:	6a58      	ldr	r0, [r3, #36]	; 0x24
1000190c:	2400      	movs	r4, #0
1000190e:	4285      	cmp	r5, r0
10001910:	d806      	bhi.n	10001920 <best_effort_wfe_or_timeout+0x80>
10001912:	6a9b      	ldr	r3, [r3, #40]	; 0x28
10001914:	3401      	adds	r4, #1
10001916:	42b3      	cmp	r3, r6
10001918:	d202      	bcs.n	10001920 <best_effort_wfe_or_timeout+0x80>
1000191a:	1a2c      	subs	r4, r5, r0
1000191c:	1e63      	subs	r3, r4, #1
1000191e:	419c      	sbcs	r4, r3
10001920:	0020      	movs	r0, r4
10001922:	e7eb      	b.n	100018fc <best_effort_wfe_or_timeout+0x5c>
10001924:	40054000 	.word	0x40054000
10001928:	100013f9 	.word	0x100013f9
1000192c:	20000274 	.word	0x20000274

10001930 <hardware_alarm_irq_handler>:
10001930:	b5f0      	push	{r4, r5, r6, r7, lr}
10001932:	46c6      	mov	lr, r8
10001934:	b500      	push	{lr}
10001936:	f3ef 8305 	mrs	r3, IPSR
1000193a:	0018      	movs	r0, r3
1000193c:	3810      	subs	r0, #16
1000193e:	f3ef 8c10 	mrs	ip, PRIMASK
10001942:	b672      	cpsid	i
10001944:	491a      	ldr	r1, [pc, #104]	; (100019b0 <hardware_alarm_irq_handler+0x80>)
10001946:	680a      	ldr	r2, [r1, #0]
10001948:	2a00      	cmp	r2, #0
1000194a:	d0fc      	beq.n	10001946 <hardware_alarm_irq_handler+0x16>
1000194c:	f3bf 8f5f 	dmb	sy
10001950:	2401      	movs	r4, #1
10001952:	0022      	movs	r2, r4
10001954:	4082      	lsls	r2, r0
10001956:	4917      	ldr	r1, [pc, #92]	; (100019b4 <hardware_alarm_irq_handler+0x84>)
10001958:	634a      	str	r2, [r1, #52]	; 0x34
1000195a:	4917      	ldr	r1, [pc, #92]	; (100019b8 <hardware_alarm_irq_handler+0x88>)
1000195c:	600a      	str	r2, [r1, #0]
1000195e:	4917      	ldr	r1, [pc, #92]	; (100019bc <hardware_alarm_irq_handler+0x8c>)
10001960:	780d      	ldrb	r5, [r1, #0]
10001962:	002e      	movs	r6, r5
10001964:	40c6      	lsrs	r6, r0
10001966:	2100      	movs	r1, #0
10001968:	4234      	tst	r4, r6
1000196a:	d00c      	beq.n	10001986 <hardware_alarm_irq_handler+0x56>
1000196c:	4911      	ldr	r1, [pc, #68]	; (100019b4 <hardware_alarm_irq_handler+0x84>)
1000196e:	6a4c      	ldr	r4, [r1, #36]	; 0x24
10001970:	0081      	lsls	r1, r0, #2
10001972:	4e13      	ldr	r6, [pc, #76]	; (100019c0 <hardware_alarm_irq_handler+0x90>)
10001974:	5989      	ldr	r1, [r1, r6]
10001976:	428c      	cmp	r4, r1
10001978:	d312      	bcc.n	100019a0 <hardware_alarm_irq_handler+0x70>
1000197a:	0083      	lsls	r3, r0, #2
1000197c:	4911      	ldr	r1, [pc, #68]	; (100019c4 <hardware_alarm_irq_handler+0x94>)
1000197e:	5859      	ldr	r1, [r3, r1]
10001980:	4395      	bics	r5, r2
10001982:	4b0e      	ldr	r3, [pc, #56]	; (100019bc <hardware_alarm_irq_handler+0x8c>)
10001984:	701d      	strb	r5, [r3, #0]
10001986:	f3bf 8f5f 	dmb	sy
1000198a:	4b09      	ldr	r3, [pc, #36]	; (100019b0 <hardware_alarm_irq_handler+0x80>)
1000198c:	2200      	movs	r2, #0
1000198e:	601a      	str	r2, [r3, #0]
10001990:	f38c 8810 	msr	PRIMASK, ip
10001994:	2900      	cmp	r1, #0
10001996:	d000      	beq.n	1000199a <hardware_alarm_irq_handler+0x6a>
10001998:	4788      	blx	r1
1000199a:	bc80      	pop	{r7}
1000199c:	46b8      	mov	r8, r7
1000199e:	bdf0      	pop	{r4, r5, r6, r7, pc}
100019a0:	009b      	lsls	r3, r3, #2
100019a2:	4a09      	ldr	r2, [pc, #36]	; (100019c8 <hardware_alarm_irq_handler+0x98>)
100019a4:	4690      	mov	r8, r2
100019a6:	4443      	add	r3, r8
100019a8:	681a      	ldr	r2, [r3, #0]
100019aa:	601a      	str	r2, [r3, #0]
100019ac:	2100      	movs	r1, #0
100019ae:	e7ea      	b.n	10001986 <hardware_alarm_irq_handler+0x56>
100019b0:	d0000128 	.word	0xd0000128
100019b4:	40054000 	.word	0x40054000
100019b8:	4005703c 	.word	0x4005703c
100019bc:	20025eda 	.word	0x20025eda
100019c0:	200006c0 	.word	0x200006c0
100019c4:	20000404 	.word	0x20000404
100019c8:	40053fd0 	.word	0x40053fd0

100019cc <hardware_alarm_claim>:
100019cc:	b510      	push	{r4, lr}
100019ce:	0001      	movs	r1, r0
100019d0:	4a02      	ldr	r2, [pc, #8]	; (100019dc <hardware_alarm_claim+0x10>)
100019d2:	4803      	ldr	r0, [pc, #12]	; (100019e0 <hardware_alarm_claim+0x14>)
100019d4:	f7ff f9d2 	bl	10000d7c <hw_claim_or_assert>
100019d8:	bd10      	pop	{r4, pc}
100019da:	46c0      	nop			; (mov r8, r8)
100019dc:	10002e34 	.word	0x10002e34
100019e0:	20025ed8 	.word	0x20025ed8

100019e4 <time_us_64>:
100019e4:	4b03      	ldr	r3, [pc, #12]	; (100019f4 <time_us_64+0x10>)
100019e6:	6a59      	ldr	r1, [r3, #36]	; 0x24
100019e8:	6a98      	ldr	r0, [r3, #40]	; 0x28
100019ea:	000a      	movs	r2, r1
100019ec:	6a59      	ldr	r1, [r3, #36]	; 0x24
100019ee:	428a      	cmp	r2, r1
100019f0:	d1fa      	bne.n	100019e8 <time_us_64+0x4>
100019f2:	4770      	bx	lr
100019f4:	40054000 	.word	0x40054000

100019f8 <hardware_alarm_set_callback>:
100019f8:	b570      	push	{r4, r5, r6, lr}
100019fa:	0004      	movs	r4, r0
100019fc:	000d      	movs	r5, r1
100019fe:	f3ef 8610 	mrs	r6, PRIMASK
10001a02:	b672      	cpsid	i
10001a04:	4a1b      	ldr	r2, [pc, #108]	; (10001a74 <hardware_alarm_set_callback+0x7c>)
10001a06:	6813      	ldr	r3, [r2, #0]
10001a08:	2b00      	cmp	r3, #0
10001a0a:	d0fc      	beq.n	10001a06 <hardware_alarm_set_callback+0xe>
10001a0c:	f3bf 8f5f 	dmb	sy
10001a10:	2d00      	cmp	r5, #0
10001a12:	d01c      	beq.n	10001a4e <hardware_alarm_set_callback+0x56>
10001a14:	0020      	movs	r0, r4
10001a16:	f7ff fa1f 	bl	10000e58 <irq_get_vtable_handler>
10001a1a:	4b17      	ldr	r3, [pc, #92]	; (10001a78 <hardware_alarm_set_callback+0x80>)
10001a1c:	4283      	cmp	r3, r0
10001a1e:	d00b      	beq.n	10001a38 <hardware_alarm_set_callback+0x40>
10001a20:	0019      	movs	r1, r3
10001a22:	0020      	movs	r0, r4
10001a24:	f7ff fa20 	bl	10000e68 <irq_set_exclusive_handler>
10001a28:	2101      	movs	r1, #1
10001a2a:	0020      	movs	r0, r4
10001a2c:	f7ff fa0c 	bl	10000e48 <irq_set_enabled>
10001a30:	2301      	movs	r3, #1
10001a32:	40a3      	lsls	r3, r4
10001a34:	4a11      	ldr	r2, [pc, #68]	; (10001a7c <hardware_alarm_set_callback+0x84>)
10001a36:	6013      	str	r3, [r2, #0]
10001a38:	00a4      	lsls	r4, r4, #2
10001a3a:	4b11      	ldr	r3, [pc, #68]	; (10001a80 <hardware_alarm_set_callback+0x88>)
10001a3c:	50e5      	str	r5, [r4, r3]
10001a3e:	f3bf 8f5f 	dmb	sy
10001a42:	4b0c      	ldr	r3, [pc, #48]	; (10001a74 <hardware_alarm_set_callback+0x7c>)
10001a44:	2200      	movs	r2, #0
10001a46:	601a      	str	r2, [r3, #0]
10001a48:	f386 8810 	msr	PRIMASK, r6
10001a4c:	bd70      	pop	{r4, r5, r6, pc}
10001a4e:	00a2      	lsls	r2, r4, #2
10001a50:	4b0b      	ldr	r3, [pc, #44]	; (10001a80 <hardware_alarm_set_callback+0x88>)
10001a52:	2100      	movs	r1, #0
10001a54:	50d1      	str	r1, [r2, r3]
10001a56:	490b      	ldr	r1, [pc, #44]	; (10001a84 <hardware_alarm_set_callback+0x8c>)
10001a58:	2201      	movs	r2, #1
10001a5a:	40a2      	lsls	r2, r4
10001a5c:	780b      	ldrb	r3, [r1, #0]
10001a5e:	4393      	bics	r3, r2
10001a60:	700b      	strb	r3, [r1, #0]
10001a62:	4905      	ldr	r1, [pc, #20]	; (10001a78 <hardware_alarm_set_callback+0x80>)
10001a64:	0020      	movs	r0, r4
10001a66:	f7ff fb0f 	bl	10001088 <irq_remove_handler>
10001a6a:	2100      	movs	r1, #0
10001a6c:	0020      	movs	r0, r4
10001a6e:	f7ff f9eb 	bl	10000e48 <irq_set_enabled>
10001a72:	e7e4      	b.n	10001a3e <hardware_alarm_set_callback+0x46>
10001a74:	d0000128 	.word	0xd0000128
10001a78:	10001931 	.word	0x10001931
10001a7c:	40056038 	.word	0x40056038
10001a80:	20000404 	.word	0x20000404
10001a84:	20025eda 	.word	0x20025eda

10001a88 <hardware_alarm_set_target>:
10001a88:	b5f0      	push	{r4, r5, r6, r7, lr}
10001a8a:	46d6      	mov	lr, sl
10001a8c:	464f      	mov	r7, r9
10001a8e:	4646      	mov	r6, r8
10001a90:	b5c0      	push	{r6, r7, lr}
10001a92:	0005      	movs	r5, r0
10001a94:	0016      	movs	r6, r2
10001a96:	001c      	movs	r4, r3
10001a98:	f7ff ffa4 	bl	100019e4 <time_us_64>
10001a9c:	428c      	cmp	r4, r1
10001a9e:	d802      	bhi.n	10001aa6 <hardware_alarm_set_target+0x1e>
10001aa0:	d146      	bne.n	10001b30 <hardware_alarm_set_target+0xa8>
10001aa2:	4286      	cmp	r6, r0
10001aa4:	d944      	bls.n	10001b30 <hardware_alarm_set_target+0xa8>
10001aa6:	f3ef 8a10 	mrs	sl, PRIMASK
10001aaa:	b672      	cpsid	i
10001aac:	4a21      	ldr	r2, [pc, #132]	; (10001b34 <hardware_alarm_set_target+0xac>)
10001aae:	6813      	ldr	r3, [r2, #0]
10001ab0:	2b00      	cmp	r3, #0
10001ab2:	d0fc      	beq.n	10001aae <hardware_alarm_set_target+0x26>
10001ab4:	f3bf 8f5f 	dmb	sy
10001ab8:	4b1f      	ldr	r3, [pc, #124]	; (10001b38 <hardware_alarm_set_target+0xb0>)
10001aba:	781a      	ldrb	r2, [r3, #0]
10001abc:	4691      	mov	r9, r2
10001abe:	2701      	movs	r7, #1
10001ac0:	40af      	lsls	r7, r5
10001ac2:	433a      	orrs	r2, r7
10001ac4:	b2d2      	uxtb	r2, r2
10001ac6:	4690      	mov	r8, r2
10001ac8:	701a      	strb	r2, [r3, #0]
10001aca:	4b1c      	ldr	r3, [pc, #112]	; (10001b3c <hardware_alarm_set_target+0xb4>)
10001acc:	635f      	str	r7, [r3, #52]	; 0x34
10001ace:	1d2a      	adds	r2, r5, #4
10001ad0:	0092      	lsls	r2, r2, #2
10001ad2:	50d6      	str	r6, [r2, r3]
10001ad4:	00aa      	lsls	r2, r5, #2
10001ad6:	491a      	ldr	r1, [pc, #104]	; (10001b40 <hardware_alarm_set_target+0xb8>)
10001ad8:	5054      	str	r4, [r2, r1]
10001ada:	6a1b      	ldr	r3, [r3, #32]
10001adc:	2000      	movs	r0, #0
10001ade:	423b      	tst	r3, r7
10001ae0:	d10b      	bne.n	10001afa <hardware_alarm_set_target+0x72>
10001ae2:	f3bf 8f5f 	dmb	sy
10001ae6:	4b13      	ldr	r3, [pc, #76]	; (10001b34 <hardware_alarm_set_target+0xac>)
10001ae8:	2200      	movs	r2, #0
10001aea:	601a      	str	r2, [r3, #0]
10001aec:	f38a 8810 	msr	PRIMASK, sl
10001af0:	bce0      	pop	{r5, r6, r7}
10001af2:	46ba      	mov	sl, r7
10001af4:	46b1      	mov	r9, r6
10001af6:	46a8      	mov	r8, r5
10001af8:	bdf0      	pop	{r4, r5, r6, r7, pc}
10001afa:	f7ff ff73 	bl	100019e4 <time_us_64>
10001afe:	428c      	cmp	r4, r1
10001b00:	d812      	bhi.n	10001b28 <hardware_alarm_set_target+0xa0>
10001b02:	d101      	bne.n	10001b08 <hardware_alarm_set_target+0x80>
10001b04:	4286      	cmp	r6, r0
10001b06:	d80f      	bhi.n	10001b28 <hardware_alarm_set_target+0xa0>
10001b08:	45c8      	cmp	r8, r9
10001b0a:	d00f      	beq.n	10001b2c <hardware_alarm_set_target+0xa4>
10001b0c:	4b0b      	ldr	r3, [pc, #44]	; (10001b3c <hardware_alarm_set_target+0xb4>)
10001b0e:	621f      	str	r7, [r3, #32]
10001b10:	635f      	str	r7, [r3, #52]	; 0x34
10001b12:	201f      	movs	r0, #31
10001b14:	4005      	ands	r5, r0
10001b16:	2301      	movs	r3, #1
10001b18:	40ab      	lsls	r3, r5
10001b1a:	4a0a      	ldr	r2, [pc, #40]	; (10001b44 <hardware_alarm_set_target+0xbc>)
10001b1c:	6013      	str	r3, [r2, #0]
10001b1e:	4b06      	ldr	r3, [pc, #24]	; (10001b38 <hardware_alarm_set_target+0xb0>)
10001b20:	464a      	mov	r2, r9
10001b22:	701a      	strb	r2, [r3, #0]
10001b24:	381e      	subs	r0, #30
10001b26:	e7dc      	b.n	10001ae2 <hardware_alarm_set_target+0x5a>
10001b28:	2000      	movs	r0, #0
10001b2a:	e7da      	b.n	10001ae2 <hardware_alarm_set_target+0x5a>
10001b2c:	2001      	movs	r0, #1
10001b2e:	e7d8      	b.n	10001ae2 <hardware_alarm_set_target+0x5a>
10001b30:	2001      	movs	r0, #1
10001b32:	e7dd      	b.n	10001af0 <hardware_alarm_set_target+0x68>
10001b34:	d0000128 	.word	0xd0000128
10001b38:	20025eda 	.word	0x20025eda
10001b3c:	40054000 	.word	0x40054000
10001b40:	200006c0 	.word	0x200006c0
10001b44:	e000e280 	.word	0xe000e280

10001b48 <hardware_alarm_cancel>:
10001b48:	f3ef 8c10 	mrs	ip, PRIMASK
10001b4c:	b672      	cpsid	i
10001b4e:	4a0b      	ldr	r2, [pc, #44]	; (10001b7c <hardware_alarm_cancel+0x34>)
10001b50:	6813      	ldr	r3, [r2, #0]
10001b52:	2b00      	cmp	r3, #0
10001b54:	d0fc      	beq.n	10001b50 <hardware_alarm_cancel+0x8>
10001b56:	f3bf 8f5f 	dmb	sy
10001b5a:	2301      	movs	r3, #1
10001b5c:	4083      	lsls	r3, r0
10001b5e:	4a08      	ldr	r2, [pc, #32]	; (10001b80 <hardware_alarm_cancel+0x38>)
10001b60:	6213      	str	r3, [r2, #32]
10001b62:	4908      	ldr	r1, [pc, #32]	; (10001b84 <hardware_alarm_cancel+0x3c>)
10001b64:	780a      	ldrb	r2, [r1, #0]
10001b66:	439a      	bics	r2, r3
10001b68:	700a      	strb	r2, [r1, #0]
10001b6a:	f3bf 8f5f 	dmb	sy
10001b6e:	4b03      	ldr	r3, [pc, #12]	; (10001b7c <hardware_alarm_cancel+0x34>)
10001b70:	2200      	movs	r2, #0
10001b72:	601a      	str	r2, [r3, #0]
10001b74:	f38c 8810 	msr	PRIMASK, ip
10001b78:	4770      	bx	lr
10001b7a:	46c0      	nop			; (mov r8, r8)
10001b7c:	d0000128 	.word	0xd0000128
10001b80:	40054000 	.word	0x40054000
10001b84:	20025eda 	.word	0x20025eda

10001b88 <ph_add_child_node>:
10001b88:	b530      	push	{r4, r5, lr}
10001b8a:	6804      	ldr	r4, [r0, #0]
10001b8c:	0048      	lsls	r0, r1, #1
10001b8e:	1840      	adds	r0, r0, r1
10001b90:	3803      	subs	r0, #3
10001b92:	1825      	adds	r5, r4, r0
10001b94:	0053      	lsls	r3, r2, #1
10001b96:	189b      	adds	r3, r3, r2
10001b98:	3b03      	subs	r3, #3
10001b9a:	18e3      	adds	r3, r4, r3
10001b9c:	7099      	strb	r1, [r3, #2]
10001b9e:	5c21      	ldrb	r1, [r4, r0]
10001ba0:	2900      	cmp	r1, #0
10001ba2:	d101      	bne.n	10001ba8 <ph_add_child_node+0x20>
10001ba4:	702a      	strb	r2, [r5, #0]
10001ba6:	bd30      	pop	{r4, r5, pc}
10001ba8:	7059      	strb	r1, [r3, #1]
10001baa:	702a      	strb	r2, [r5, #0]
10001bac:	e7fb      	b.n	10001ba6 <ph_add_child_node+0x1e>

10001bae <ph_merge_nodes>:
10001bae:	b570      	push	{r4, r5, r6, lr}
10001bb0:	0006      	movs	r6, r0
10001bb2:	000d      	movs	r5, r1
10001bb4:	0014      	movs	r4, r2
10001bb6:	0010      	movs	r0, r2
10001bb8:	2900      	cmp	r1, #0
10001bba:	d00d      	beq.n	10001bd8 <ph_merge_nodes+0x2a>
10001bbc:	0008      	movs	r0, r1
10001bbe:	2a00      	cmp	r2, #0
10001bc0:	d00a      	beq.n	10001bd8 <ph_merge_nodes+0x2a>
10001bc2:	68b0      	ldr	r0, [r6, #8]
10001bc4:	6873      	ldr	r3, [r6, #4]
10001bc6:	4798      	blx	r3
10001bc8:	2800      	cmp	r0, #0
10001bca:	d006      	beq.n	10001bda <ph_merge_nodes+0x2c>
10001bcc:	0022      	movs	r2, r4
10001bce:	0029      	movs	r1, r5
10001bd0:	0030      	movs	r0, r6
10001bd2:	f7ff ffd9 	bl	10001b88 <ph_add_child_node>
10001bd6:	0028      	movs	r0, r5
10001bd8:	bd70      	pop	{r4, r5, r6, pc}
10001bda:	002a      	movs	r2, r5
10001bdc:	0021      	movs	r1, r4
10001bde:	0030      	movs	r0, r6
10001be0:	f7ff ffd2 	bl	10001b88 <ph_add_child_node>
10001be4:	0020      	movs	r0, r4
10001be6:	e7f7      	b.n	10001bd8 <ph_merge_nodes+0x2a>

10001be8 <ph_clear>:
10001be8:	2300      	movs	r3, #0
10001bea:	7343      	strb	r3, [r0, #13]
10001bec:	3301      	adds	r3, #1
10001bee:	7383      	strb	r3, [r0, #14]
10001bf0:	7b02      	ldrb	r2, [r0, #12]
10001bf2:	73c2      	strb	r2, [r0, #15]
10001bf4:	2a01      	cmp	r2, #1
10001bf6:	d90b      	bls.n	10001c10 <ph_clear+0x28>
10001bf8:	005a      	lsls	r2, r3, #1
10001bfa:	18d2      	adds	r2, r2, r3
10001bfc:	3a03      	subs	r2, #3
10001bfe:	6801      	ldr	r1, [r0, #0]
10001c00:	468c      	mov	ip, r1
10001c02:	4462      	add	r2, ip
10001c04:	3301      	adds	r3, #1
10001c06:	b2db      	uxtb	r3, r3
10001c08:	7053      	strb	r3, [r2, #1]
10001c0a:	7b02      	ldrb	r2, [r0, #12]
10001c0c:	4293      	cmp	r3, r2
10001c0e:	d3f3      	bcc.n	10001bf8 <ph_clear+0x10>
10001c10:	6803      	ldr	r3, [r0, #0]
10001c12:	0051      	lsls	r1, r2, #1
10001c14:	188a      	adds	r2, r1, r2
10001c16:	189a      	adds	r2, r3, r2
10001c18:	3a03      	subs	r2, #3
10001c1a:	2300      	movs	r3, #0
10001c1c:	7053      	strb	r3, [r2, #1]
10001c1e:	4770      	bx	lr

10001c20 <ph_post_alloc_init>:
10001c20:	b510      	push	{r4, lr}
10001c22:	7301      	strb	r1, [r0, #12]
10001c24:	6042      	str	r2, [r0, #4]
10001c26:	6083      	str	r3, [r0, #8]
10001c28:	f7ff ffde 	bl	10001be8 <ph_clear>
10001c2c:	bd10      	pop	{r4, pc}

10001c2e <ph_merge_two_pass>:
10001c2e:	b570      	push	{r4, r5, r6, lr}
10001c30:	0004      	movs	r4, r0
10001c32:	1e08      	subs	r0, r1, #0
10001c34:	d007      	beq.n	10001c46 <ph_merge_two_pass+0x18>
10001c36:	6821      	ldr	r1, [r4, #0]
10001c38:	0043      	lsls	r3, r0, #1
10001c3a:	181b      	adds	r3, r3, r0
10001c3c:	3b03      	subs	r3, #3
10001c3e:	18ca      	adds	r2, r1, r3
10001c40:	7852      	ldrb	r2, [r2, #1]
10001c42:	2a00      	cmp	r2, #0
10001c44:	d100      	bne.n	10001c48 <ph_merge_two_pass+0x1a>
10001c46:	bd70      	pop	{r4, r5, r6, pc}
10001c48:	0055      	lsls	r5, r2, #1
10001c4a:	18ad      	adds	r5, r5, r2
10001c4c:	3d03      	subs	r5, #3
10001c4e:	1949      	adds	r1, r1, r5
10001c50:	784e      	ldrb	r6, [r1, #1]
10001c52:	2500      	movs	r5, #0
10001c54:	704d      	strb	r5, [r1, #1]
10001c56:	6821      	ldr	r1, [r4, #0]
10001c58:	468c      	mov	ip, r1
10001c5a:	4463      	add	r3, ip
10001c5c:	705d      	strb	r5, [r3, #1]
10001c5e:	0001      	movs	r1, r0
10001c60:	0020      	movs	r0, r4
10001c62:	f7ff ffa4 	bl	10001bae <ph_merge_nodes>
10001c66:	0005      	movs	r5, r0
10001c68:	0031      	movs	r1, r6
10001c6a:	0020      	movs	r0, r4
10001c6c:	f7ff ffdf 	bl	10001c2e <ph_merge_two_pass>
10001c70:	0002      	movs	r2, r0
10001c72:	0029      	movs	r1, r5
10001c74:	0020      	movs	r0, r4
10001c76:	f7ff ff9a 	bl	10001bae <ph_merge_nodes>
10001c7a:	e7e4      	b.n	10001c46 <ph_merge_two_pass+0x18>

10001c7c <ph_remove_any_head>:
10001c7c:	b5f8      	push	{r3, r4, r5, r6, r7, lr}
10001c7e:	0004      	movs	r4, r0
10001c80:	000e      	movs	r6, r1
10001c82:	0017      	movs	r7, r2
10001c84:	004d      	lsls	r5, r1, #1
10001c86:	186d      	adds	r5, r5, r1
10001c88:	3d03      	subs	r5, #3
10001c8a:	6803      	ldr	r3, [r0, #0]
10001c8c:	5d59      	ldrb	r1, [r3, r5]
10001c8e:	f7ff ffce 	bl	10001c2e <ph_merge_two_pass>
10001c92:	0003      	movs	r3, r0
10001c94:	2f00      	cmp	r7, #0
10001c96:	d00e      	beq.n	10001cb6 <ph_remove_any_head+0x3a>
10001c98:	7be1      	ldrb	r1, [r4, #15]
10001c9a:	2900      	cmp	r1, #0
10001c9c:	d006      	beq.n	10001cac <ph_remove_any_head+0x30>
10001c9e:	004a      	lsls	r2, r1, #1
10001ca0:	1852      	adds	r2, r2, r1
10001ca2:	6821      	ldr	r1, [r4, #0]
10001ca4:	468c      	mov	ip, r1
10001ca6:	4462      	add	r2, ip
10001ca8:	3a03      	subs	r2, #3
10001caa:	7056      	strb	r6, [r2, #1]
10001cac:	7ba2      	ldrb	r2, [r4, #14]
10001cae:	2a00      	cmp	r2, #0
10001cb0:	d100      	bne.n	10001cb4 <ph_remove_any_head+0x38>
10001cb2:	73a6      	strb	r6, [r4, #14]
10001cb4:	73e6      	strb	r6, [r4, #15]
10001cb6:	2b00      	cmp	r3, #0
10001cb8:	d007      	beq.n	10001cca <ph_remove_any_head+0x4e>
10001cba:	0043      	lsls	r3, r0, #1
10001cbc:	181b      	adds	r3, r3, r0
10001cbe:	6822      	ldr	r2, [r4, #0]
10001cc0:	4694      	mov	ip, r2
10001cc2:	4463      	add	r3, ip
10001cc4:	3b03      	subs	r3, #3
10001cc6:	2200      	movs	r2, #0
10001cc8:	709a      	strb	r2, [r3, #2]
10001cca:	6823      	ldr	r3, [r4, #0]
10001ccc:	195d      	adds	r5, r3, r5
10001cce:	2300      	movs	r3, #0
10001cd0:	706b      	strb	r3, [r5, #1]
10001cd2:	bdf8      	pop	{r3, r4, r5, r6, r7, pc}

10001cd4 <ph_remove_head>:
10001cd4:	b570      	push	{r4, r5, r6, lr}
10001cd6:	0004      	movs	r4, r0
10001cd8:	000a      	movs	r2, r1
10001cda:	7b45      	ldrb	r5, [r0, #13]
10001cdc:	0029      	movs	r1, r5
10001cde:	f7ff ffcd 	bl	10001c7c <ph_remove_any_head>
10001ce2:	7360      	strb	r0, [r4, #13]
10001ce4:	0028      	movs	r0, r5
10001ce6:	bd70      	pop	{r4, r5, r6, pc}

10001ce8 <ph_remove_and_free_node>:
10001ce8:	b570      	push	{r4, r5, r6, lr}
10001cea:	0004      	movs	r4, r0
10001cec:	2900      	cmp	r1, #0
10001cee:	d034      	beq.n	10001d5a <ph_remove_and_free_node+0x72>
10001cf0:	7b43      	ldrb	r3, [r0, #13]
10001cf2:	428b      	cmp	r3, r1
10001cf4:	d018      	beq.n	10001d28 <ph_remove_and_free_node+0x40>
10001cf6:	6805      	ldr	r5, [r0, #0]
10001cf8:	0048      	lsls	r0, r1, #1
10001cfa:	1840      	adds	r0, r0, r1
10001cfc:	3803      	subs	r0, #3
10001cfe:	1828      	adds	r0, r5, r0
10001d00:	7882      	ldrb	r2, [r0, #2]
10001d02:	2a00      	cmp	r2, #0
10001d04:	d02b      	beq.n	10001d5e <ph_remove_and_free_node+0x76>
10001d06:	0053      	lsls	r3, r2, #1
10001d08:	189b      	adds	r3, r3, r2
10001d0a:	3b03      	subs	r3, #3
10001d0c:	18ee      	adds	r6, r5, r3
10001d0e:	5cea      	ldrb	r2, [r5, r3]
10001d10:	428a      	cmp	r2, r1
10001d12:	d00e      	beq.n	10001d32 <ph_remove_and_free_node+0x4a>
10001d14:	0053      	lsls	r3, r2, #1
10001d16:	189b      	adds	r3, r3, r2
10001d18:	3b03      	subs	r3, #3
10001d1a:	18eb      	adds	r3, r5, r3
10001d1c:	785a      	ldrb	r2, [r3, #1]
10001d1e:	428a      	cmp	r2, r1
10001d20:	d018      	beq.n	10001d54 <ph_remove_and_free_node+0x6c>
10001d22:	2a00      	cmp	r2, #0
10001d24:	d1f6      	bne.n	10001d14 <ph_remove_and_free_node+0x2c>
10001d26:	e006      	b.n	10001d36 <ph_remove_and_free_node+0x4e>
10001d28:	2101      	movs	r1, #1
10001d2a:	f7ff ffd3 	bl	10001cd4 <ph_remove_head>
10001d2e:	2001      	movs	r0, #1
10001d30:	e00f      	b.n	10001d52 <ph_remove_and_free_node+0x6a>
10001d32:	7843      	ldrb	r3, [r0, #1]
10001d34:	7033      	strb	r3, [r6, #0]
10001d36:	2300      	movs	r3, #0
10001d38:	7083      	strb	r3, [r0, #2]
10001d3a:	7043      	strb	r3, [r0, #1]
10001d3c:	2201      	movs	r2, #1
10001d3e:	0020      	movs	r0, r4
10001d40:	f7ff ff9c 	bl	10001c7c <ph_remove_any_head>
10001d44:	0002      	movs	r2, r0
10001d46:	7b61      	ldrb	r1, [r4, #13]
10001d48:	0020      	movs	r0, r4
10001d4a:	f7ff ff30 	bl	10001bae <ph_merge_nodes>
10001d4e:	7360      	strb	r0, [r4, #13]
10001d50:	2001      	movs	r0, #1
10001d52:	bd70      	pop	{r4, r5, r6, pc}
10001d54:	7842      	ldrb	r2, [r0, #1]
10001d56:	705a      	strb	r2, [r3, #1]
10001d58:	e7ed      	b.n	10001d36 <ph_remove_and_free_node+0x4e>
10001d5a:	2000      	movs	r0, #0
10001d5c:	e7f9      	b.n	10001d52 <ph_remove_and_free_node+0x6a>
10001d5e:	2000      	movs	r0, #0
10001d60:	e7f7      	b.n	10001d52 <ph_remove_and_free_node+0x6a>
	...

10001d64 <uart_set_baudrate>:
10001d64:	b570      	push	{r4, r5, r6, lr}
10001d66:	0004      	movs	r4, r0
10001d68:	000d      	movs	r5, r1
10001d6a:	2006      	movs	r0, #6
10001d6c:	f000 f92c 	bl	10001fc8 <clock_get_hz>
10001d70:	00c0      	lsls	r0, r0, #3
10001d72:	0029      	movs	r1, r5
10001d74:	f000 faba 	bl	100022ec <__wrap___aeabi_uidiv>
10001d78:	09c6      	lsrs	r6, r0, #7
10001d7a:	2501      	movs	r5, #1
10001d7c:	2e00      	cmp	r6, #0
10001d7e:	d00a      	beq.n	10001d96 <uart_set_baudrate+0x32>
10001d80:	4b0d      	ldr	r3, [pc, #52]	; (10001db8 <uart_set_baudrate+0x54>)
10001d82:	429e      	cmp	r6, r3
10001d84:	d805      	bhi.n	10001d92 <uart_set_baudrate+0x2e>
10001d86:	237f      	movs	r3, #127	; 0x7f
10001d88:	4018      	ands	r0, r3
10001d8a:	3001      	adds	r0, #1
10001d8c:	0035      	movs	r5, r6
10001d8e:	0846      	lsrs	r6, r0, #1
10001d90:	e001      	b.n	10001d96 <uart_set_baudrate+0x32>
10001d92:	2600      	movs	r6, #0
10001d94:	4d09      	ldr	r5, [pc, #36]	; (10001dbc <uart_set_baudrate+0x58>)
10001d96:	6265      	str	r5, [r4, #36]	; 0x24
10001d98:	62a6      	str	r6, [r4, #40]	; 0x28
10001d9a:	342c      	adds	r4, #44	; 0x2c
10001d9c:	2080      	movs	r0, #128	; 0x80
10001d9e:	0180      	lsls	r0, r0, #6
10001da0:	4304      	orrs	r4, r0
10001da2:	2300      	movs	r3, #0
10001da4:	6023      	str	r3, [r4, #0]
10001da6:	2006      	movs	r0, #6
10001da8:	f000 f90e 	bl	10001fc8 <clock_get_hz>
10001dac:	0080      	lsls	r0, r0, #2
10001dae:	01a9      	lsls	r1, r5, #6
10001db0:	1989      	adds	r1, r1, r6
10001db2:	f000 fa9b 	bl	100022ec <__wrap___aeabi_uidiv>
10001db6:	bd70      	pop	{r4, r5, r6, pc}
10001db8:	0000fffe 	.word	0x0000fffe
10001dbc:	0000ffff 	.word	0x0000ffff

10001dc0 <clock_configure>:
10001dc0:	b5f8      	push	{r3, r4, r5, r6, r7, lr}
10001dc2:	46de      	mov	lr, fp
10001dc4:	4657      	mov	r7, sl
10001dc6:	464e      	mov	r6, r9
10001dc8:	4645      	mov	r5, r8
10001dca:	b5e0      	push	{r5, r6, r7, lr}
10001dcc:	0005      	movs	r5, r0
10001dce:	4688      	mov	r8, r1
10001dd0:	0016      	movs	r6, r2
10001dd2:	9a0a      	ldr	r2, [sp, #40]	; 0x28
10001dd4:	429a      	cmp	r2, r3
10001dd6:	d900      	bls.n	10001dda <clock_configure+0x1a>
10001dd8:	e071      	b.n	10001ebe <clock_configure+0xfe>
10001dda:	0e1a      	lsrs	r2, r3, #24
10001ddc:	4691      	mov	r9, r2
10001dde:	021f      	lsls	r7, r3, #8
10001de0:	9a0a      	ldr	r2, [sp, #40]	; 0x28
10001de2:	2300      	movs	r3, #0
10001de4:	0038      	movs	r0, r7
10001de6:	4649      	mov	r1, r9
10001de8:	f000 fabe 	bl	10002368 <__wrap___aeabi_uldivmod>
10001dec:	4682      	mov	sl, r0
10001dee:	006c      	lsls	r4, r5, #1
10001df0:	1964      	adds	r4, r4, r5
10001df2:	00a4      	lsls	r4, r4, #2
10001df4:	4b33      	ldr	r3, [pc, #204]	; (10001ec4 <clock_configure+0x104>)
10001df6:	469c      	mov	ip, r3
10001df8:	4464      	add	r4, ip
10001dfa:	6863      	ldr	r3, [r4, #4]
10001dfc:	4283      	cmp	r3, r0
10001dfe:	d200      	bcs.n	10001e02 <clock_configure+0x42>
10001e00:	6060      	str	r0, [r4, #4]
10001e02:	1f2b      	subs	r3, r5, #4
10001e04:	b2db      	uxtb	r3, r3
10001e06:	469b      	mov	fp, r3
10001e08:	2b01      	cmp	r3, #1
10001e0a:	d935      	bls.n	10001e78 <clock_configure+0xb8>
10001e0c:	23c0      	movs	r3, #192	; 0xc0
10001e0e:	019b      	lsls	r3, r3, #6
10001e10:	4323      	orrs	r3, r4
10001e12:	2280      	movs	r2, #128	; 0x80
10001e14:	0112      	lsls	r2, r2, #4
10001e16:	601a      	str	r2, [r3, #0]
10001e18:	00ab      	lsls	r3, r5, #2
10001e1a:	4a2b      	ldr	r2, [pc, #172]	; (10001ec8 <clock_configure+0x108>)
10001e1c:	5899      	ldr	r1, [r3, r2]
10001e1e:	2900      	cmp	r1, #0
10001e20:	d005      	beq.n	10001e2e <clock_configure+0x6e>
10001e22:	6950      	ldr	r0, [r2, #20]
10001e24:	f000 fa62 	bl	100022ec <__wrap___aeabi_uidiv>
10001e28:	3001      	adds	r0, #1
10001e2a:	3801      	subs	r0, #1
10001e2c:	d1fd      	bne.n	10001e2a <clock_configure+0x6a>
10001e2e:	6822      	ldr	r2, [r4, #0]
10001e30:	0176      	lsls	r6, r6, #5
10001e32:	4072      	eors	r2, r6
10001e34:	26e0      	movs	r6, #224	; 0xe0
10001e36:	4016      	ands	r6, r2
10001e38:	0021      	movs	r1, r4
10001e3a:	2380      	movs	r3, #128	; 0x80
10001e3c:	015b      	lsls	r3, r3, #5
10001e3e:	4323      	orrs	r3, r4
10001e40:	601e      	str	r6, [r3, #0]
10001e42:	465a      	mov	r2, fp
10001e44:	2a01      	cmp	r2, #1
10001e46:	d92d      	bls.n	10001ea4 <clock_configure+0xe4>
10001e48:	2380      	movs	r3, #128	; 0x80
10001e4a:	019b      	lsls	r3, r3, #6
10001e4c:	430b      	orrs	r3, r1
10001e4e:	2280      	movs	r2, #128	; 0x80
10001e50:	0112      	lsls	r2, r2, #4
10001e52:	601a      	str	r2, [r3, #0]
10001e54:	4653      	mov	r3, sl
10001e56:	6063      	str	r3, [r4, #4]
10001e58:	00ad      	lsls	r5, r5, #2
10001e5a:	4652      	mov	r2, sl
10001e5c:	2300      	movs	r3, #0
10001e5e:	0038      	movs	r0, r7
10001e60:	4649      	mov	r1, r9
10001e62:	f000 fa81 	bl	10002368 <__wrap___aeabi_uldivmod>
10001e66:	4b18      	ldr	r3, [pc, #96]	; (10001ec8 <clock_configure+0x108>)
10001e68:	5158      	str	r0, [r3, r5]
10001e6a:	2001      	movs	r0, #1
10001e6c:	bcf0      	pop	{r4, r5, r6, r7}
10001e6e:	46bb      	mov	fp, r7
10001e70:	46b2      	mov	sl, r6
10001e72:	46a9      	mov	r9, r5
10001e74:	46a0      	mov	r8, r4
10001e76:	bdf8      	pop	{r3, r4, r5, r6, r7, pc}
10001e78:	4643      	mov	r3, r8
10001e7a:	2b01      	cmp	r3, #1
10001e7c:	d1c6      	bne.n	10001e0c <clock_configure+0x4c>
10001e7e:	23c0      	movs	r3, #192	; 0xc0
10001e80:	019b      	lsls	r3, r3, #6
10001e82:	4323      	orrs	r3, r4
10001e84:	2203      	movs	r2, #3
10001e86:	601a      	str	r2, [r3, #0]
10001e88:	3a02      	subs	r2, #2
10001e8a:	68a3      	ldr	r3, [r4, #8]
10001e8c:	421a      	tst	r2, r3
10001e8e:	d0fc      	beq.n	10001e8a <clock_configure+0xca>
10001e90:	6822      	ldr	r2, [r4, #0]
10001e92:	0176      	lsls	r6, r6, #5
10001e94:	4056      	eors	r6, r2
10001e96:	23e0      	movs	r3, #224	; 0xe0
10001e98:	401e      	ands	r6, r3
10001e9a:	0021      	movs	r1, r4
10001e9c:	2380      	movs	r3, #128	; 0x80
10001e9e:	015b      	lsls	r3, r3, #5
10001ea0:	4323      	orrs	r3, r4
10001ea2:	601e      	str	r6, [r3, #0]
10001ea4:	6820      	ldr	r0, [r4, #0]
10001ea6:	4642      	mov	r2, r8
10001ea8:	4050      	eors	r0, r2
10001eaa:	2203      	movs	r2, #3
10001eac:	4002      	ands	r2, r0
10001eae:	601a      	str	r2, [r3, #0]
10001eb0:	2201      	movs	r2, #1
10001eb2:	4643      	mov	r3, r8
10001eb4:	409a      	lsls	r2, r3
10001eb6:	68a3      	ldr	r3, [r4, #8]
10001eb8:	421a      	tst	r2, r3
10001eba:	d0fc      	beq.n	10001eb6 <clock_configure+0xf6>
10001ebc:	e7c4      	b.n	10001e48 <clock_configure+0x88>
10001ebe:	2000      	movs	r0, #0
10001ec0:	e7d4      	b.n	10001e6c <clock_configure+0xac>
10001ec2:	46c0      	nop			; (mov r8, r8)
10001ec4:	40008000 	.word	0x40008000
10001ec8:	20000424 	.word	0x20000424

10001ecc <clocks_init>:
10001ecc:	b530      	push	{r4, r5, lr}
10001ece:	b083      	sub	sp, #12
10001ed0:	200c      	movs	r0, #12
10001ed2:	f000 f8d7 	bl	10002084 <watchdog_start_tick>
10001ed6:	f7fe ff33 	bl	10000d40 <running_on_fpga>
10001eda:	2800      	cmp	r0, #0
10001edc:	d00b      	beq.n	10001ef6 <clocks_init+0x2a>
10001ede:	4b2e      	ldr	r3, [pc, #184]	; (10001f98 <clocks_init+0xcc>)
10001ee0:	0019      	movs	r1, r3
10001ee2:	3128      	adds	r1, #40	; 0x28
10001ee4:	4a2d      	ldr	r2, [pc, #180]	; (10001f9c <clocks_init+0xd0>)
10001ee6:	c304      	stmia	r3!, {r2}
10001ee8:	428b      	cmp	r3, r1
10001eea:	d1fc      	bne.n	10001ee6 <clocks_init+0x1a>
10001eec:	4b2a      	ldr	r3, [pc, #168]	; (10001f98 <clocks_init+0xcc>)
10001eee:	4a2c      	ldr	r2, [pc, #176]	; (10001fa0 <clocks_init+0xd4>)
10001ef0:	625a      	str	r2, [r3, #36]	; 0x24
10001ef2:	b003      	add	sp, #12
10001ef4:	bd30      	pop	{r4, r5, pc}
10001ef6:	4b2b      	ldr	r3, [pc, #172]	; (10001fa4 <clocks_init+0xd8>)
10001ef8:	2200      	movs	r2, #0
10001efa:	679a      	str	r2, [r3, #120]	; 0x78
10001efc:	f000 f8ca 	bl	10002094 <xosc_init>
10001f00:	4b29      	ldr	r3, [pc, #164]	; (10001fa8 <clocks_init+0xdc>)
10001f02:	2201      	movs	r2, #1
10001f04:	601a      	str	r2, [r3, #0]
10001f06:	4a27      	ldr	r2, [pc, #156]	; (10001fa4 <clocks_init+0xd8>)
10001f08:	6c53      	ldr	r3, [r2, #68]	; 0x44
10001f0a:	2b01      	cmp	r3, #1
10001f0c:	d1fc      	bne.n	10001f08 <clocks_init+0x3c>
10001f0e:	4b27      	ldr	r3, [pc, #156]	; (10001fac <clocks_init+0xe0>)
10001f10:	2203      	movs	r2, #3
10001f12:	601a      	str	r2, [r3, #0]
10001f14:	4a23      	ldr	r2, [pc, #140]	; (10001fa4 <clocks_init+0xd8>)
10001f16:	6b93      	ldr	r3, [r2, #56]	; 0x38
10001f18:	2b01      	cmp	r3, #1
10001f1a:	d1fc      	bne.n	10001f16 <clocks_init+0x4a>
10001f1c:	3301      	adds	r3, #1
10001f1e:	9300      	str	r3, [sp, #0]
10001f20:	3304      	adds	r3, #4
10001f22:	4a23      	ldr	r2, [pc, #140]	; (10001fb0 <clocks_init+0xe4>)
10001f24:	2101      	movs	r1, #1
10001f26:	4823      	ldr	r0, [pc, #140]	; (10001fb4 <clocks_init+0xe8>)
10001f28:	f000 f854 	bl	10001fd4 <pll_init>
10001f2c:	2305      	movs	r3, #5
10001f2e:	9300      	str	r3, [sp, #0]
10001f30:	4a21      	ldr	r2, [pc, #132]	; (10001fb8 <clocks_init+0xec>)
10001f32:	2101      	movs	r1, #1
10001f34:	4821      	ldr	r0, [pc, #132]	; (10001fbc <clocks_init+0xf0>)
10001f36:	f000 f84d 	bl	10001fd4 <pll_init>
10001f3a:	4b21      	ldr	r3, [pc, #132]	; (10001fc0 <clocks_init+0xf4>)
10001f3c:	9300      	str	r3, [sp, #0]
10001f3e:	2200      	movs	r2, #0
10001f40:	2102      	movs	r1, #2
10001f42:	2004      	movs	r0, #4
10001f44:	f7ff ff3c 	bl	10001dc0 <clock_configure>
10001f48:	4d1e      	ldr	r5, [pc, #120]	; (10001fc4 <clocks_init+0xf8>)
10001f4a:	9500      	str	r5, [sp, #0]
10001f4c:	002b      	movs	r3, r5
10001f4e:	2200      	movs	r2, #0
10001f50:	2101      	movs	r1, #1
10001f52:	2005      	movs	r0, #5
10001f54:	f7ff ff34 	bl	10001dc0 <clock_configure>
10001f58:	4c10      	ldr	r4, [pc, #64]	; (10001f9c <clocks_init+0xd0>)
10001f5a:	9400      	str	r4, [sp, #0]
10001f5c:	0023      	movs	r3, r4
10001f5e:	2200      	movs	r2, #0
10001f60:	2100      	movs	r1, #0
10001f62:	2007      	movs	r0, #7
10001f64:	f7ff ff2c 	bl	10001dc0 <clock_configure>
10001f68:	9400      	str	r4, [sp, #0]
10001f6a:	0023      	movs	r3, r4
10001f6c:	2200      	movs	r2, #0
10001f6e:	2100      	movs	r1, #0
10001f70:	2008      	movs	r0, #8
10001f72:	f7ff ff25 	bl	10001dc0 <clock_configure>
10001f76:	4b0a      	ldr	r3, [pc, #40]	; (10001fa0 <clocks_init+0xd4>)
10001f78:	9300      	str	r3, [sp, #0]
10001f7a:	0023      	movs	r3, r4
10001f7c:	2200      	movs	r2, #0
10001f7e:	2100      	movs	r1, #0
10001f80:	2009      	movs	r0, #9
10001f82:	f7ff ff1d 	bl	10001dc0 <clock_configure>
10001f86:	9500      	str	r5, [sp, #0]
10001f88:	002b      	movs	r3, r5
10001f8a:	2200      	movs	r2, #0
10001f8c:	2100      	movs	r1, #0
10001f8e:	2006      	movs	r0, #6
10001f90:	f7ff ff16 	bl	10001dc0 <clock_configure>
10001f94:	e7ad      	b.n	10001ef2 <clocks_init+0x26>
10001f96:	46c0      	nop			; (mov r8, r8)
10001f98:	20000424 	.word	0x20000424
10001f9c:	02dc6c00 	.word	0x02dc6c00
10001fa0:	0000b71b 	.word	0x0000b71b
10001fa4:	40008000 	.word	0x40008000
10001fa8:	4000b03c 	.word	0x4000b03c
10001fac:	4000b030 	.word	0x4000b030
10001fb0:	59682f00 	.word	0x59682f00
10001fb4:	40028000 	.word	0x40028000
10001fb8:	47868c00 	.word	0x47868c00
10001fbc:	4002c000 	.word	0x4002c000
10001fc0:	00b71b00 	.word	0x00b71b00
10001fc4:	07735940 	.word	0x07735940

10001fc8 <clock_get_hz>:
10001fc8:	0080      	lsls	r0, r0, #2
10001fca:	4b01      	ldr	r3, [pc, #4]	; (10001fd0 <clock_get_hz+0x8>)
10001fcc:	58c0      	ldr	r0, [r0, r3]
10001fce:	4770      	bx	lr
10001fd0:	20000424 	.word	0x20000424

10001fd4 <pll_init>:
10001fd4:	b5f0      	push	{r4, r5, r6, r7, lr}
10001fd6:	46c6      	mov	lr, r8
10001fd8:	b500      	push	{lr}
10001fda:	0004      	movs	r4, r0
10001fdc:	000e      	movs	r6, r1
10001fde:	4690      	mov	r8, r2
10001fe0:	001f      	movs	r7, r3
10001fe2:	200c      	movs	r0, #12
10001fe4:	f000 f982 	bl	100022ec <__wrap___aeabi_uidiv>
10001fe8:	0141      	lsls	r1, r0, #5
10001fea:	1a09      	subs	r1, r1, r0
10001fec:	018d      	lsls	r5, r1, #6
10001fee:	1a69      	subs	r1, r5, r1
10001ff0:	00c9      	lsls	r1, r1, #3
10001ff2:	1809      	adds	r1, r1, r0
10001ff4:	0189      	lsls	r1, r1, #6
10001ff6:	4640      	mov	r0, r8
10001ff8:	f000 f978 	bl	100022ec <__wrap___aeabi_uidiv>
10001ffc:	043f      	lsls	r7, r7, #16
10001ffe:	9b06      	ldr	r3, [sp, #24]
10002000:	031a      	lsls	r2, r3, #12
10002002:	4317      	orrs	r7, r2
10002004:	6823      	ldr	r3, [r4, #0]
10002006:	2b00      	cmp	r3, #0
10002008:	db22      	blt.n	10002050 <pll_init+0x7c>
1000200a:	4b1a      	ldr	r3, [pc, #104]	; (10002074 <pll_init+0xa0>)
1000200c:	18e2      	adds	r2, r4, r3
1000200e:	4253      	negs	r3, r2
10002010:	415a      	adcs	r2, r3
10002012:	0312      	lsls	r2, r2, #12
10002014:	2380      	movs	r3, #128	; 0x80
10002016:	015b      	lsls	r3, r3, #5
10002018:	469c      	mov	ip, r3
1000201a:	4462      	add	r2, ip
1000201c:	4b16      	ldr	r3, [pc, #88]	; (10002078 <pll_init+0xa4>)
1000201e:	601a      	str	r2, [r3, #0]
10002020:	4b16      	ldr	r3, [pc, #88]	; (1000207c <pll_init+0xa8>)
10002022:	601a      	str	r2, [r3, #0]
10002024:	4d16      	ldr	r5, [pc, #88]	; (10002080 <pll_init+0xac>)
10002026:	68ab      	ldr	r3, [r5, #8]
10002028:	0011      	movs	r1, r2
1000202a:	4399      	bics	r1, r3
1000202c:	d1fb      	bne.n	10002026 <pll_init+0x52>
1000202e:	6026      	str	r6, [r4, #0]
10002030:	60a0      	str	r0, [r4, #8]
10002032:	1d23      	adds	r3, r4, #4
10002034:	22c0      	movs	r2, #192	; 0xc0
10002036:	0192      	lsls	r2, r2, #6
10002038:	431a      	orrs	r2, r3
1000203a:	2321      	movs	r3, #33	; 0x21
1000203c:	6013      	str	r3, [r2, #0]
1000203e:	6823      	ldr	r3, [r4, #0]
10002040:	2b00      	cmp	r3, #0
10002042:	dafc      	bge.n	1000203e <pll_init+0x6a>
10002044:	60e7      	str	r7, [r4, #12]
10002046:	2308      	movs	r3, #8
10002048:	6013      	str	r3, [r2, #0]
1000204a:	bc80      	pop	{r7}
1000204c:	46b8      	mov	r8, r7
1000204e:	bdf0      	pop	{r4, r5, r6, r7, pc}
10002050:	6822      	ldr	r2, [r4, #0]
10002052:	233f      	movs	r3, #63	; 0x3f
10002054:	4013      	ands	r3, r2
10002056:	42b3      	cmp	r3, r6
10002058:	d1d7      	bne.n	1000200a <pll_init+0x36>
1000205a:	68a3      	ldr	r3, [r4, #8]
1000205c:	051b      	lsls	r3, r3, #20
1000205e:	0d1b      	lsrs	r3, r3, #20
10002060:	4283      	cmp	r3, r0
10002062:	d1d2      	bne.n	1000200a <pll_init+0x36>
10002064:	68e3      	ldr	r3, [r4, #12]
10002066:	22ee      	movs	r2, #238	; 0xee
10002068:	02d2      	lsls	r2, r2, #11
1000206a:	4013      	ands	r3, r2
1000206c:	42bb      	cmp	r3, r7
1000206e:	d1cc      	bne.n	1000200a <pll_init+0x36>
10002070:	e7eb      	b.n	1000204a <pll_init+0x76>
10002072:	46c0      	nop			; (mov r8, r8)
10002074:	bffd4000 	.word	0xbffd4000
10002078:	4000e000 	.word	0x4000e000
1000207c:	4000f000 	.word	0x4000f000
10002080:	4000c000 	.word	0x4000c000

10002084 <watchdog_start_tick>:
10002084:	2380      	movs	r3, #128	; 0x80
10002086:	009b      	lsls	r3, r3, #2
10002088:	4303      	orrs	r3, r0
1000208a:	4a01      	ldr	r2, [pc, #4]	; (10002090 <watchdog_start_tick+0xc>)
1000208c:	62d3      	str	r3, [r2, #44]	; 0x2c
1000208e:	4770      	bx	lr
10002090:	40058000 	.word	0x40058000

10002094 <xosc_init>:
10002094:	4b06      	ldr	r3, [pc, #24]	; (100020b0 <xosc_init+0x1c>)
10002096:	22aa      	movs	r2, #170	; 0xaa
10002098:	0112      	lsls	r2, r2, #4
1000209a:	601a      	str	r2, [r3, #0]
1000209c:	222f      	movs	r2, #47	; 0x2f
1000209e:	60da      	str	r2, [r3, #12]
100020a0:	4b04      	ldr	r3, [pc, #16]	; (100020b4 <xosc_init+0x20>)
100020a2:	4a05      	ldr	r2, [pc, #20]	; (100020b8 <xosc_init+0x24>)
100020a4:	601a      	str	r2, [r3, #0]
100020a6:	4a02      	ldr	r2, [pc, #8]	; (100020b0 <xosc_init+0x1c>)
100020a8:	6853      	ldr	r3, [r2, #4]
100020aa:	2b00      	cmp	r3, #0
100020ac:	dafc      	bge.n	100020a8 <xosc_init+0x14>
100020ae:	4770      	bx	lr
100020b0:	40024000 	.word	0x40024000
100020b4:	40026000 	.word	0x40026000
100020b8:	00fab000 	.word	0x00fab000

100020bc <runtime_init>:
100020bc:	b570      	push	{r4, r5, r6, lr}
100020be:	4b2f      	ldr	r3, [pc, #188]	; (1000217c <runtime_init+0xc0>)
100020c0:	4a2f      	ldr	r2, [pc, #188]	; (10002180 <runtime_init+0xc4>)
100020c2:	601a      	str	r2, [r3, #0]
100020c4:	4b2f      	ldr	r3, [pc, #188]	; (10002184 <runtime_init+0xc8>)
100020c6:	4a30      	ldr	r2, [pc, #192]	; (10002188 <runtime_init+0xcc>)
100020c8:	601a      	str	r2, [r3, #0]
100020ca:	4930      	ldr	r1, [pc, #192]	; (1000218c <runtime_init+0xd0>)
100020cc:	688b      	ldr	r3, [r1, #8]
100020ce:	0014      	movs	r4, r2
100020d0:	439c      	bics	r4, r3
100020d2:	d1fb      	bne.n	100020cc <runtime_init+0x10>
100020d4:	4a2e      	ldr	r2, [pc, #184]	; (10002190 <runtime_init+0xd4>)
100020d6:	4b2f      	ldr	r3, [pc, #188]	; (10002194 <runtime_init+0xd8>)
100020d8:	429a      	cmp	r2, r3
100020da:	d20a      	bcs.n	100020f2 <runtime_init+0x36>
100020dc:	0015      	movs	r5, r2
100020de:	001e      	movs	r6, r3
100020e0:	3e01      	subs	r6, #1
100020e2:	1ab6      	subs	r6, r6, r2
100020e4:	08b6      	lsrs	r6, r6, #2
100020e6:	cd08      	ldmia	r5!, {r3}
100020e8:	4798      	blx	r3
100020ea:	0023      	movs	r3, r4
100020ec:	3401      	adds	r4, #1
100020ee:	42b3      	cmp	r3, r6
100020f0:	d1f9      	bne.n	100020e6 <runtime_init+0x2a>
100020f2:	f7ff feeb 	bl	10001ecc <clocks_init>
100020f6:	4b23      	ldr	r3, [pc, #140]	; (10002184 <runtime_init+0xc8>)
100020f8:	4a27      	ldr	r2, [pc, #156]	; (10002198 <runtime_init+0xdc>)
100020fa:	601a      	str	r2, [r3, #0]
100020fc:	4a23      	ldr	r2, [pc, #140]	; (1000218c <runtime_init+0xd0>)
100020fe:	6893      	ldr	r3, [r2, #8]
10002100:	43db      	mvns	r3, r3
10002102:	01db      	lsls	r3, r3, #7
10002104:	09dd      	lsrs	r5, r3, #7
10002106:	2b00      	cmp	r3, #0
10002108:	d1f9      	bne.n	100020fe <runtime_init+0x42>
1000210a:	4b24      	ldr	r3, [pc, #144]	; (1000219c <runtime_init+0xe0>)
1000210c:	2240      	movs	r2, #64	; 0x40
1000210e:	679a      	str	r2, [r3, #120]	; 0x78
10002110:	675a      	str	r2, [r3, #116]	; 0x74
10002112:	671a      	str	r2, [r3, #112]	; 0x70
10002114:	66da      	str	r2, [r3, #108]	; 0x6c
10002116:	4a22      	ldr	r2, [pc, #136]	; (100021a0 <runtime_init+0xe4>)
10002118:	4b22      	ldr	r3, [pc, #136]	; (100021a4 <runtime_init+0xe8>)
1000211a:	429a      	cmp	r2, r3
1000211c:	d210      	bcs.n	10002140 <runtime_init+0x84>
1000211e:	0014      	movs	r4, r2
10002120:	001e      	movs	r6, r3
10002122:	e005      	b.n	10002130 <runtime_init+0x74>
10002124:	0020      	movs	r0, r4
10002126:	f7ff f90a 	bl	1000133e <recursive_mutex_init>
1000212a:	3408      	adds	r4, #8
1000212c:	42b4      	cmp	r4, r6
1000212e:	d207      	bcs.n	10002140 <runtime_init+0x84>
10002130:	6823      	ldr	r3, [r4, #0]
10002132:	2b00      	cmp	r3, #0
10002134:	d1f6      	bne.n	10002124 <runtime_init+0x68>
10002136:	0020      	movs	r0, r4
10002138:	f7ff f8f4 	bl	10001324 <mutex_init>
1000213c:	3408      	adds	r4, #8
1000213e:	e7f5      	b.n	1000212c <runtime_init+0x70>
10002140:	4c19      	ldr	r4, [pc, #100]	; (100021a8 <runtime_init+0xec>)
10002142:	68a1      	ldr	r1, [r4, #8]
10002144:	4e19      	ldr	r6, [pc, #100]	; (100021ac <runtime_init+0xf0>)
10002146:	22c0      	movs	r2, #192	; 0xc0
10002148:	0030      	movs	r0, r6
1000214a:	f000 fb95 	bl	10002878 <__wrap___aeabi_memcpy>
1000214e:	60a6      	str	r6, [r4, #8]
10002150:	f7fe fe2c 	bl	10000dac <spin_locks_reset>
10002154:	f7ff f8ba 	bl	100012cc <irq_init_priorities>
10002158:	f7ff fac8 	bl	100016ec <alarm_pool_init_default>
1000215c:	4a14      	ldr	r2, [pc, #80]	; (100021b0 <runtime_init+0xf4>)
1000215e:	4b15      	ldr	r3, [pc, #84]	; (100021b4 <runtime_init+0xf8>)
10002160:	429a      	cmp	r2, r3
10002162:	d20a      	bcs.n	1000217a <runtime_init+0xbe>
10002164:	0014      	movs	r4, r2
10002166:	001e      	movs	r6, r3
10002168:	3e01      	subs	r6, #1
1000216a:	1ab6      	subs	r6, r6, r2
1000216c:	08b6      	lsrs	r6, r6, #2
1000216e:	cc08      	ldmia	r4!, {r3}
10002170:	4798      	blx	r3
10002172:	002b      	movs	r3, r5
10002174:	3501      	adds	r5, #1
10002176:	429e      	cmp	r6, r3
10002178:	d1f9      	bne.n	1000216e <runtime_init+0xb2>
1000217a:	bd70      	pop	{r4, r5, r6, pc}
1000217c:	4000e000 	.word	0x4000e000
10002180:	fefbcdbf 	.word	0xfefbcdbf
10002184:	4000f000 	.word	0x4000f000
10002188:	003c7ffe 	.word	0x003c7ffe
1000218c:	4000c000 	.word	0x4000c000
10002190:	200002c8 	.word	0x200002c8
10002194:	200002d8 	.word	0x200002d8
10002198:	01ffffff 	.word	0x01ffffff
1000219c:	4001f000 	.word	0x4001f000
100021a0:	200002c0 	.word	0x200002c0
100021a4:	200002c8 	.word	0x200002c8
100021a8:	e000ed00 	.word	0xe000ed00
100021ac:	20000000 	.word	0x20000000
100021b0:	200002d8 	.word	0x200002d8
100021b4:	200002dc 	.word	0x200002dc

100021b8 <_exit>:
100021b8:	be00      	bkpt	0x0000
100021ba:	e7fd      	b.n	100021b8 <_exit>

100021bc <exit>:
100021bc:	b510      	push	{r4, lr}
100021be:	f7ff fffb 	bl	100021b8 <_exit>
	...

100021c4 <panic>:
100021c4:	b40f      	push	{r0, r1, r2, r3}
100021c6:	b500      	push	{lr}
100021c8:	b083      	sub	sp, #12
100021ca:	4808      	ldr	r0, [pc, #32]	; (100021ec <panic+0x28>)
100021cc:	f000 fc3e 	bl	10002a4c <__wrap_puts>
100021d0:	9b04      	ldr	r3, [sp, #16]
100021d2:	2b00      	cmp	r3, #0
100021d4:	d007      	beq.n	100021e6 <panic+0x22>
100021d6:	a905      	add	r1, sp, #20
100021d8:	9101      	str	r1, [sp, #4]
100021da:	0018      	movs	r0, r3
100021dc:	f000 f818 	bl	10002210 <weak_raw_vprintf>
100021e0:	4803      	ldr	r0, [pc, #12]	; (100021f0 <panic+0x2c>)
100021e2:	f000 fc33 	bl	10002a4c <__wrap_puts>
100021e6:	2001      	movs	r0, #1
100021e8:	f7ff ffe6 	bl	100021b8 <_exit>
100021ec:	10002e58 	.word	0x10002e58
100021f0:	10002e68 	.word	0x10002e68

100021f4 <hard_assertion_failure>:
100021f4:	b510      	push	{r4, lr}
100021f6:	4801      	ldr	r0, [pc, #4]	; (100021fc <hard_assertion_failure+0x8>)
100021f8:	f7ff ffe4 	bl	100021c4 <panic>
100021fc:	10002e6c 	.word	0x10002e6c

10002200 <_out_char>:
10002200:	b510      	push	{r4, lr}
10002202:	2800      	cmp	r0, #0
10002204:	d100      	bne.n	10002208 <_out_char+0x8>
10002206:	bd10      	pop	{r4, pc}
10002208:	f000 fc02 	bl	10002a10 <__wrap_putchar>
1000220c:	e7fb      	b.n	10002206 <_out_char+0x6>
	...

10002210 <weak_raw_vprintf>:
10002210:	b510      	push	{r4, lr}
10002212:	b084      	sub	sp, #16
10002214:	0003      	movs	r3, r0
10002216:	4a08      	ldr	r2, [pc, #32]	; (10002238 <weak_raw_vprintf+0x28>)
10002218:	6814      	ldr	r4, [r2, #0]
1000221a:	2c00      	cmp	r4, #0
1000221c:	d008      	beq.n	10002230 <weak_raw_vprintf+0x20>
1000221e:	2201      	movs	r2, #1
10002220:	9100      	str	r1, [sp, #0]
10002222:	4252      	negs	r2, r2
10002224:	a903      	add	r1, sp, #12
10002226:	4805      	ldr	r0, [pc, #20]	; (1000223c <weak_raw_vprintf+0x2c>)
10002228:	47a0      	blx	r4
1000222a:	2001      	movs	r0, #1
1000222c:	b004      	add	sp, #16
1000222e:	bd10      	pop	{r4, pc}
10002230:	f000 fc0c 	bl	10002a4c <__wrap_puts>
10002234:	2000      	movs	r0, #0
10002236:	e7f9      	b.n	1000222c <weak_raw_vprintf+0x1c>
10002238:	20000498 	.word	0x20000498
1000223c:	10002201 	.word	0x10002201

10002240 <__aeabi_bits_init>:
10002240:	4801      	ldr	r0, [pc, #4]	; (10002248 <__aeabi_bits_init+0x8>)
10002242:	2104      	movs	r1, #4
10002244:	4b01      	ldr	r3, [pc, #4]	; (1000224c <__aeabi_bits_init+0xc>)
10002246:	4718      	bx	r3
10002248:	200002a0 	.word	0x200002a0
1000224c:	10002271 	.word	0x10002271

10002250 <rom_func_lookup>:
10002250:	b510      	push	{r4, lr}
10002252:	0001      	movs	r1, r0
10002254:	2314      	movs	r3, #20
10002256:	8818      	ldrh	r0, [r3, #0]
10002258:	3304      	adds	r3, #4
1000225a:	881b      	ldrh	r3, [r3, #0]
1000225c:	4798      	blx	r3
1000225e:	bd10      	pop	{r4, pc}

10002260 <rom_data_lookup>:
10002260:	b510      	push	{r4, lr}
10002262:	0001      	movs	r1, r0
10002264:	2316      	movs	r3, #22
10002266:	8818      	ldrh	r0, [r3, #0]
10002268:	3302      	adds	r3, #2
1000226a:	881b      	ldrh	r3, [r3, #0]
1000226c:	4798      	blx	r3
1000226e:	bd10      	pop	{r4, pc}

10002270 <rom_funcs_lookup>:
10002270:	b5f8      	push	{r3, r4, r5, r6, r7, lr}
10002272:	1e0f      	subs	r7, r1, #0
10002274:	d00f      	beq.n	10002296 <rom_funcs_lookup+0x26>
10002276:	0004      	movs	r4, r0
10002278:	2500      	movs	r5, #0
1000227a:	2601      	movs	r6, #1
1000227c:	6820      	ldr	r0, [r4, #0]
1000227e:	f7ff ffe7 	bl	10002250 <rom_func_lookup>
10002282:	c401      	stmia	r4!, {r0}
10002284:	1e43      	subs	r3, r0, #1
10002286:	4198      	sbcs	r0, r3
10002288:	4240      	negs	r0, r0
1000228a:	4006      	ands	r6, r0
1000228c:	3501      	adds	r5, #1
1000228e:	42af      	cmp	r7, r5
10002290:	d1f4      	bne.n	1000227c <rom_funcs_lookup+0xc>
10002292:	0030      	movs	r0, r6
10002294:	bdf8      	pop	{r3, r4, r5, r6, r7, pc}
10002296:	2601      	movs	r6, #1
10002298:	e7fb      	b.n	10002292 <rom_funcs_lookup+0x22>
	...

1000229c <__wrap___aeabi_idiv>:
1000229c:	4a12      	ldr	r2, [pc, #72]	; (100022e8 <divmod_s32s32_savestate+0x18>)
1000229e:	6f93      	ldr	r3, [r2, #120]	; 0x78
100022a0:	089b      	lsrs	r3, r3, #2
100022a2:	d215      	bcs.n	100022d0 <divmod_s32s32_savestate>

100022a4 <divmod_s32s32_unsafe>:
100022a4:	6690      	str	r0, [r2, #104]	; 0x68
100022a6:	66d1      	str	r1, [r2, #108]	; 0x6c
100022a8:	2900      	cmp	r1, #0
100022aa:	d005      	beq.n	100022b8 <divmod_s32s32_unsafe+0x14>
100022ac:	e7ff      	b.n	100022ae <divmod_s32s32_unsafe+0xa>
100022ae:	e7ff      	b.n	100022b0 <divmod_s32s32_unsafe+0xc>
100022b0:	e7ff      	b.n	100022b2 <divmod_s32s32_unsafe+0xe>
100022b2:	6f51      	ldr	r1, [r2, #116]	; 0x74
100022b4:	6f10      	ldr	r0, [r2, #112]	; 0x70
100022b6:	4770      	bx	lr
100022b8:	b504      	push	{r2, lr}
100022ba:	2180      	movs	r1, #128	; 0x80
100022bc:	0609      	lsls	r1, r1, #24
100022be:	17c2      	asrs	r2, r0, #31
100022c0:	4051      	eors	r1, r2
100022c2:	2800      	cmp	r0, #0
100022c4:	d000      	beq.n	100022c8 <divmod_s32s32_unsafe+0x24>
100022c6:	43c8      	mvns	r0, r1
100022c8:	f000 fd62 	bl	10002d90 <____aeabi_idiv0_veneer>
100022cc:	2100      	movs	r1, #0
100022ce:	bd04      	pop	{r2, pc}

100022d0 <divmod_s32s32_savestate>:
100022d0:	b5f0      	push	{r4, r5, r6, r7, lr}
100022d2:	6e14      	ldr	r4, [r2, #96]	; 0x60
100022d4:	6e55      	ldr	r5, [r2, #100]	; 0x64
100022d6:	6f57      	ldr	r7, [r2, #116]	; 0x74
100022d8:	6f16      	ldr	r6, [r2, #112]	; 0x70
100022da:	f7ff ffe3 	bl	100022a4 <divmod_s32s32_unsafe>
100022de:	6614      	str	r4, [r2, #96]	; 0x60
100022e0:	6655      	str	r5, [r2, #100]	; 0x64
100022e2:	6757      	str	r7, [r2, #116]	; 0x74
100022e4:	6716      	str	r6, [r2, #112]	; 0x70
100022e6:	bdf0      	pop	{r4, r5, r6, r7, pc}
100022e8:	d0000000 	.word	0xd0000000

100022ec <__wrap___aeabi_uidiv>:
100022ec:	4a11      	ldr	r2, [pc, #68]	; (10002334 <divmod_u32u32_savestate+0x18>)
100022ee:	6f93      	ldr	r3, [r2, #120]	; 0x78
100022f0:	089b      	lsrs	r3, r3, #2
100022f2:	d213      	bcs.n	1000231c <divmod_u32u32_savestate>

100022f4 <divmod_u32u32_unsafe>:
100022f4:	6610      	str	r0, [r2, #96]	; 0x60
100022f6:	6651      	str	r1, [r2, #100]	; 0x64
100022f8:	2900      	cmp	r1, #0
100022fa:	d005      	beq.n	10002308 <divmod_u32u32_unsafe+0x14>
100022fc:	e7ff      	b.n	100022fe <divmod_u32u32_unsafe+0xa>
100022fe:	e7ff      	b.n	10002300 <divmod_u32u32_unsafe+0xc>
10002300:	e7ff      	b.n	10002302 <divmod_u32u32_unsafe+0xe>
10002302:	6f51      	ldr	r1, [r2, #116]	; 0x74
10002304:	6f10      	ldr	r0, [r2, #112]	; 0x70
10002306:	4770      	bx	lr
10002308:	b504      	push	{r2, lr}
1000230a:	2800      	cmp	r0, #0
1000230c:	d001      	beq.n	10002312 <divmod_u32u32_unsafe+0x1e>
1000230e:	2000      	movs	r0, #0
10002310:	43c0      	mvns	r0, r0
10002312:	f000 fd3d 	bl	10002d90 <____aeabi_idiv0_veneer>
10002316:	2100      	movs	r1, #0
10002318:	bd04      	pop	{r2, pc}
1000231a:	46c0      	nop			; (mov r8, r8)

1000231c <divmod_u32u32_savestate>:
1000231c:	b5f0      	push	{r4, r5, r6, r7, lr}
1000231e:	6e14      	ldr	r4, [r2, #96]	; 0x60
10002320:	6e55      	ldr	r5, [r2, #100]	; 0x64
10002322:	6f57      	ldr	r7, [r2, #116]	; 0x74
10002324:	6f16      	ldr	r6, [r2, #112]	; 0x70
10002326:	f7ff ffe5 	bl	100022f4 <divmod_u32u32_unsafe>
1000232a:	6614      	str	r4, [r2, #96]	; 0x60
1000232c:	6655      	str	r5, [r2, #100]	; 0x64
1000232e:	6757      	str	r7, [r2, #116]	; 0x74
10002330:	6716      	str	r6, [r2, #112]	; 0x70
10002332:	bdf0      	pop	{r4, r5, r6, r7, pc}
10002334:	d0000000 	.word	0xd0000000

10002338 <__wrap___aeabi_ldivmod>:
10002338:	4694      	mov	ip, r2
1000233a:	4a4a      	ldr	r2, [pc, #296]	; (10002464 <udiv0+0x1a>)
1000233c:	6f92      	ldr	r2, [r2, #120]	; 0x78
1000233e:	0892      	lsrs	r2, r2, #2
10002340:	4662      	mov	r2, ip
10002342:	d201      	bcs.n	10002348 <divmod_s64s64_savestate>
10002344:	e028      	b.n	10002398 <divmod_s64s64_unsafe>
10002346:	46c0      	nop			; (mov r8, r8)

10002348 <divmod_s64s64_savestate>:
10002348:	b5f0      	push	{r4, r5, r6, r7, lr}
1000234a:	4e46      	ldr	r6, [pc, #280]	; (10002464 <udiv0+0x1a>)
1000234c:	6e34      	ldr	r4, [r6, #96]	; 0x60
1000234e:	6e75      	ldr	r5, [r6, #100]	; 0x64
10002350:	6f77      	ldr	r7, [r6, #116]	; 0x74
10002352:	6f36      	ldr	r6, [r6, #112]	; 0x70
10002354:	f000 f820 	bl	10002398 <divmod_s64s64_unsafe>
10002358:	4694      	mov	ip, r2
1000235a:	4a42      	ldr	r2, [pc, #264]	; (10002464 <udiv0+0x1a>)
1000235c:	6614      	str	r4, [r2, #96]	; 0x60
1000235e:	6655      	str	r5, [r2, #100]	; 0x64
10002360:	6757      	str	r7, [r2, #116]	; 0x74
10002362:	6716      	str	r6, [r2, #112]	; 0x70
10002364:	4662      	mov	r2, ip
10002366:	bdf0      	pop	{r4, r5, r6, r7, pc}

10002368 <__wrap___aeabi_uldivmod>:
10002368:	4694      	mov	ip, r2
1000236a:	4a3e      	ldr	r2, [pc, #248]	; (10002464 <udiv0+0x1a>)
1000236c:	6f92      	ldr	r2, [r2, #120]	; 0x78
1000236e:	0892      	lsrs	r2, r2, #2
10002370:	4662      	mov	r2, ip
10002372:	d201      	bcs.n	10002378 <divmod_u64u64_savestate>
10002374:	e054      	b.n	10002420 <divmod_u64u64_unsafe>
10002376:	46c0      	nop			; (mov r8, r8)

10002378 <divmod_u64u64_savestate>:
10002378:	b5f0      	push	{r4, r5, r6, r7, lr}
1000237a:	4e3a      	ldr	r6, [pc, #232]	; (10002464 <udiv0+0x1a>)
1000237c:	6e34      	ldr	r4, [r6, #96]	; 0x60
1000237e:	6e75      	ldr	r5, [r6, #100]	; 0x64
10002380:	6f77      	ldr	r7, [r6, #116]	; 0x74
10002382:	6f36      	ldr	r6, [r6, #112]	; 0x70
10002384:	f000 f84c 	bl	10002420 <divmod_u64u64_unsafe>
10002388:	4694      	mov	ip, r2
1000238a:	4a36      	ldr	r2, [pc, #216]	; (10002464 <udiv0+0x1a>)
1000238c:	6614      	str	r4, [r2, #96]	; 0x60
1000238e:	6655      	str	r5, [r2, #100]	; 0x64
10002390:	6757      	str	r7, [r2, #116]	; 0x74
10002392:	6716      	str	r6, [r2, #112]	; 0x70
10002394:	4662      	mov	r2, ip
10002396:	bdf0      	pop	{r4, r5, r6, r7, pc}

10002398 <divmod_s64s64_unsafe>:
10002398:	2b00      	cmp	r3, #0
1000239a:	db24      	blt.n	100023e6 <l41_1+0x26>
1000239c:	d011      	beq.n	100023c2 <l41_1+0x2>
1000239e:	2900      	cmp	r1, #0
100023a0:	da3e      	bge.n	10002420 <divmod_u64u64_unsafe>
100023a2:	b500      	push	{lr}
100023a4:	43c9      	mvns	r1, r1
100023a6:	4240      	negs	r0, r0
100023a8:	d100      	bne.n	100023ac <l39_1>
100023aa:	3101      	adds	r1, #1

100023ac <l39_1>:
100023ac:	f000 f838 	bl	10002420 <divmod_u64u64_unsafe>
100023b0:	43c9      	mvns	r1, r1
100023b2:	4240      	negs	r0, r0
100023b4:	d100      	bne.n	100023b8 <l40_1>
100023b6:	3101      	adds	r1, #1

100023b8 <l40_1>:
100023b8:	43db      	mvns	r3, r3
100023ba:	4252      	negs	r2, r2
100023bc:	d100      	bne.n	100023c0 <l41_1>
100023be:	3301      	adds	r3, #1

100023c0 <l41_1>:
100023c0:	bd00      	pop	{pc}
100023c2:	2a00      	cmp	r2, #0
100023c4:	d1eb      	bne.n	1000239e <divmod_s64s64_unsafe+0x6>
100023c6:	2800      	cmp	r0, #0
100023c8:	d101      	bne.n	100023ce <l41_1+0xe>
100023ca:	2900      	cmp	r1, #0
100023cc:	d005      	beq.n	100023da <l41_1+0x1a>
100023ce:	2000      	movs	r0, #0
100023d0:	0fc9      	lsrs	r1, r1, #31
100023d2:	07c9      	lsls	r1, r1, #31
100023d4:	d101      	bne.n	100023da <l41_1+0x1a>
100023d6:	43c0      	mvns	r0, r0
100023d8:	0841      	lsrs	r1, r0, #1
100023da:	b500      	push	{lr}
100023dc:	f000 fcd0 	bl	10002d80 <____aeabi_ldiv0_veneer>
100023e0:	2200      	movs	r2, #0
100023e2:	2300      	movs	r3, #0
100023e4:	bd00      	pop	{pc}
100023e6:	b500      	push	{lr}
100023e8:	2900      	cmp	r1, #0
100023ea:	db0a      	blt.n	10002402 <l43_1+0x2>
100023ec:	43db      	mvns	r3, r3
100023ee:	4252      	negs	r2, r2
100023f0:	d100      	bne.n	100023f4 <l42_1>
100023f2:	3301      	adds	r3, #1

100023f4 <l42_1>:
100023f4:	f000 f814 	bl	10002420 <divmod_u64u64_unsafe>
100023f8:	43c9      	mvns	r1, r1
100023fa:	4240      	negs	r0, r0
100023fc:	d100      	bne.n	10002400 <l43_1>
100023fe:	3101      	adds	r1, #1

10002400 <l43_1>:
10002400:	bd00      	pop	{pc}
10002402:	43c9      	mvns	r1, r1
10002404:	4240      	negs	r0, r0
10002406:	d100      	bne.n	1000240a <l44_1>
10002408:	3101      	adds	r1, #1

1000240a <l44_1>:
1000240a:	43db      	mvns	r3, r3
1000240c:	4252      	negs	r2, r2
1000240e:	d100      	bne.n	10002412 <l45_1>
10002410:	3301      	adds	r3, #1

10002412 <l45_1>:
10002412:	f000 f805 	bl	10002420 <divmod_u64u64_unsafe>
10002416:	43db      	mvns	r3, r3
10002418:	4252      	negs	r2, r2
1000241a:	d100      	bne.n	1000241e <l46_1>
1000241c:	3301      	adds	r3, #1

1000241e <l46_1>:
1000241e:	bd00      	pop	{pc}

10002420 <divmod_u64u64_unsafe>:
10002420:	2900      	cmp	r1, #0
10002422:	d123      	bne.n	1000246c <y64>
10002424:	2b00      	cmp	r3, #0
10002426:	d118      	bne.n	1000245a <udiv0+0x10>
10002428:	2a00      	cmp	r2, #0
1000242a:	d00c      	beq.n	10002446 <divmod_u64u64_unsafe+0x26>
1000242c:	46bc      	mov	ip, r7
1000242e:	4f0d      	ldr	r7, [pc, #52]	; (10002464 <udiv0+0x1a>)
10002430:	6638      	str	r0, [r7, #96]	; 0x60
10002432:	667a      	str	r2, [r7, #100]	; 0x64
10002434:	2100      	movs	r1, #0
10002436:	2300      	movs	r3, #0
10002438:	e7ff      	b.n	1000243a <divmod_u64u64_unsafe+0x1a>
1000243a:	e7ff      	b.n	1000243c <divmod_u64u64_unsafe+0x1c>
1000243c:	e7ff      	b.n	1000243e <divmod_u64u64_unsafe+0x1e>
1000243e:	6f7a      	ldr	r2, [r7, #116]	; 0x74
10002440:	6f38      	ldr	r0, [r7, #112]	; 0x70
10002442:	4667      	mov	r7, ip
10002444:	4770      	bx	lr
10002446:	2800      	cmp	r0, #0
10002448:	d001      	beq.n	1000244e <udiv0+0x4>

1000244a <udiv0>:
1000244a:	4807      	ldr	r0, [pc, #28]	; (10002468 <udiv0+0x1e>)
1000244c:	0001      	movs	r1, r0
1000244e:	b500      	push	{lr}
10002450:	f000 fc96 	bl	10002d80 <____aeabi_ldiv0_veneer>
10002454:	2200      	movs	r2, #0
10002456:	2300      	movs	r3, #0
10002458:	bd00      	pop	{pc}
1000245a:	0002      	movs	r2, r0
1000245c:	000b      	movs	r3, r1
1000245e:	2000      	movs	r0, #0
10002460:	2100      	movs	r1, #0
10002462:	4770      	bx	lr
10002464:	d0000000 	.word	0xd0000000
10002468:	ffffffff 	.word	0xffffffff

1000246c <y64>:
1000246c:	2b00      	cmp	r3, #0
1000246e:	d000      	beq.n	10002472 <y64+0x6>
10002470:	e0bf      	b.n	100025f2 <y64_x48>
10002472:	0c13      	lsrs	r3, r2, #16
10002474:	d128      	bne.n	100024c8 <y64_x32>
10002476:	2a00      	cmp	r2, #0
10002478:	d0e7      	beq.n	1000244a <udiv0>
1000247a:	b480      	push	{r7}
1000247c:	4f11      	ldr	r7, [pc, #68]	; (100024c4 <y64+0x58>)
1000247e:	6639      	str	r1, [r7, #96]	; 0x60
10002480:	667a      	str	r2, [r7, #100]	; 0x64
10002482:	e7ff      	b.n	10002484 <y64+0x18>
10002484:	e7ff      	b.n	10002486 <y64+0x1a>
10002486:	b430      	push	{r4, r5}
10002488:	0c04      	lsrs	r4, r0, #16
1000248a:	6f7b      	ldr	r3, [r7, #116]	; 0x74
1000248c:	6f39      	ldr	r1, [r7, #112]	; 0x70
1000248e:	041b      	lsls	r3, r3, #16
10002490:	4323      	orrs	r3, r4
10002492:	663b      	str	r3, [r7, #96]	; 0x60
10002494:	667a      	str	r2, [r7, #100]	; 0x64
10002496:	e7ff      	b.n	10002498 <y64+0x2c>
10002498:	e7ff      	b.n	1000249a <y64+0x2e>
1000249a:	e7ff      	b.n	1000249c <y64+0x30>
1000249c:	46c0      	nop			; (mov r8, r8)
1000249e:	b284      	uxth	r4, r0
100024a0:	6f7b      	ldr	r3, [r7, #116]	; 0x74
100024a2:	6f3d      	ldr	r5, [r7, #112]	; 0x70
100024a4:	041b      	lsls	r3, r3, #16
100024a6:	4323      	orrs	r3, r4
100024a8:	663b      	str	r3, [r7, #96]	; 0x60
100024aa:	667a      	str	r2, [r7, #100]	; 0x64
100024ac:	e7ff      	b.n	100024ae <y64+0x42>
100024ae:	e7ff      	b.n	100024b0 <y64+0x44>
100024b0:	46c0      	nop			; (mov r8, r8)
100024b2:	2300      	movs	r3, #0
100024b4:	042c      	lsls	r4, r5, #16
100024b6:	0c2d      	lsrs	r5, r5, #16
100024b8:	6f7a      	ldr	r2, [r7, #116]	; 0x74
100024ba:	6f38      	ldr	r0, [r7, #112]	; 0x70
100024bc:	1900      	adds	r0, r0, r4
100024be:	4169      	adcs	r1, r5
100024c0:	bcb0      	pop	{r4, r5, r7}
100024c2:	4770      	bx	lr
100024c4:	d0000000 	.word	0xd0000000

100024c8 <y64_x32>:
100024c8:	b5f0      	push	{r4, r5, r6, r7, lr}
100024ca:	4694      	mov	ip, r2
100024cc:	2500      	movs	r5, #0
100024ce:	0e14      	lsrs	r4, r2, #24
100024d0:	d101      	bne.n	100024d6 <y64_x32+0xe>
100024d2:	0212      	lsls	r2, r2, #8
100024d4:	3508      	adds	r5, #8
100024d6:	0f14      	lsrs	r4, r2, #28
100024d8:	d101      	bne.n	100024de <y64_x32+0x16>
100024da:	0112      	lsls	r2, r2, #4
100024dc:	3504      	adds	r5, #4
100024de:	0f94      	lsrs	r4, r2, #30
100024e0:	d101      	bne.n	100024e6 <y64_x32+0x1e>
100024e2:	0092      	lsls	r2, r2, #2
100024e4:	3502      	adds	r5, #2
100024e6:	0fd4      	lsrs	r4, r2, #31
100024e8:	d101      	bne.n	100024ee <y64_x32+0x26>
100024ea:	0052      	lsls	r2, r2, #1
100024ec:	3501      	adds	r5, #1
100024ee:	0bd4      	lsrs	r4, r2, #15
100024f0:	3401      	adds	r4, #1
100024f2:	4f25      	ldr	r7, [pc, #148]	; (10002588 <y64_x32+0xc0>)
100024f4:	667c      	str	r4, [r7, #100]	; 0x64
100024f6:	4c25      	ldr	r4, [pc, #148]	; (1000258c <y64_x32+0xc4>)
100024f8:	663c      	str	r4, [r7, #96]	; 0x60
100024fa:	0c0e      	lsrs	r6, r1, #16
100024fc:	b293      	uxth	r3, r2
100024fe:	e7ff      	b.n	10002500 <y64_x32+0x38>
10002500:	e7ff      	b.n	10002502 <y64_x32+0x3a>
10002502:	e7ff      	b.n	10002504 <y64_x32+0x3c>
10002504:	6f3c      	ldr	r4, [r7, #112]	; 0x70
10002506:	4366      	muls	r6, r4
10002508:	0c36      	lsrs	r6, r6, #16
1000250a:	0377      	lsls	r7, r6, #13
1000250c:	46be      	mov	lr, r7
1000250e:	4373      	muls	r3, r6
10002510:	0bdf      	lsrs	r7, r3, #15
10002512:	045b      	lsls	r3, r3, #17
10002514:	1ac0      	subs	r0, r0, r3
10002516:	41b9      	sbcs	r1, r7
10002518:	0c13      	lsrs	r3, r2, #16
1000251a:	4373      	muls	r3, r6
1000251c:	18db      	adds	r3, r3, r3
1000251e:	1ac9      	subs	r1, r1, r3
10002520:	08ce      	lsrs	r6, r1, #3
10002522:	4366      	muls	r6, r4
10002524:	0c36      	lsrs	r6, r6, #16
10002526:	44b6      	add	lr, r6
10002528:	b293      	uxth	r3, r2
1000252a:	4373      	muls	r3, r6
1000252c:	0f1f      	lsrs	r7, r3, #28
1000252e:	011b      	lsls	r3, r3, #4
10002530:	1ac0      	subs	r0, r0, r3
10002532:	41b9      	sbcs	r1, r7
10002534:	0c13      	lsrs	r3, r2, #16
10002536:	4373      	muls	r3, r6
10002538:	0b1f      	lsrs	r7, r3, #12
1000253a:	051b      	lsls	r3, r3, #20
1000253c:	1ac0      	subs	r0, r0, r3
1000253e:	41b9      	sbcs	r1, r7
10002540:	0d86      	lsrs	r6, r0, #22
10002542:	028f      	lsls	r7, r1, #10
10002544:	433e      	orrs	r6, r7
10002546:	4366      	muls	r6, r4
10002548:	0c36      	lsrs	r6, r6, #16
1000254a:	2d09      	cmp	r5, #9
1000254c:	db24      	blt.n	10002598 <last0>
1000254e:	0a52      	lsrs	r2, r2, #9
10002550:	4372      	muls	r2, r6
10002552:	1a80      	subs	r0, r0, r2
10002554:	0377      	lsls	r7, r6, #13
10002556:	0a46      	lsrs	r6, r0, #9
10002558:	4366      	muls	r6, r4
1000255a:	0c36      	lsrs	r6, r6, #16
1000255c:	2316      	movs	r3, #22
1000255e:	1b5b      	subs	r3, r3, r5
10002560:	40de      	lsrs	r6, r3
10002562:	40df      	lsrs	r7, r3
10002564:	19bf      	adds	r7, r7, r6
10002566:	4664      	mov	r4, ip
10002568:	4366      	muls	r6, r4
1000256a:	1b82      	subs	r2, r0, r6
1000256c:	4670      	mov	r0, lr
1000256e:	3504      	adds	r5, #4
10002570:	3306      	adds	r3, #6
10002572:	0001      	movs	r1, r0
10002574:	40d9      	lsrs	r1, r3
10002576:	40a8      	lsls	r0, r5
10002578:	19c0      	adds	r0, r0, r7
1000257a:	d300      	bcc.n	1000257e <y64_x32+0xb6>
1000257c:	3101      	adds	r1, #1
1000257e:	42a2      	cmp	r2, r4
10002580:	d206      	bcs.n	10002590 <y64_x32+0xc8>
10002582:	2300      	movs	r3, #0
10002584:	bdf0      	pop	{r4, r5, r6, r7, pc}
10002586:	0000      	.short	0x0000
10002588:	d0000000 	.word	0xd0000000
1000258c:	ffffffff 	.word	0xffffffff
10002590:	1b12      	subs	r2, r2, r4
10002592:	3001      	adds	r0, #1
10002594:	d3f3      	bcc.n	1000257e <y64_x32+0xb6>
10002596:	e7f1      	b.n	1000257c <y64_x32+0xb4>

10002598 <last0>:
10002598:	2709      	movs	r7, #9
1000259a:	1b7f      	subs	r7, r7, r5
1000259c:	40fe      	lsrs	r6, r7
1000259e:	4664      	mov	r4, ip
100025a0:	b2a2      	uxth	r2, r4
100025a2:	4372      	muls	r2, r6
100025a4:	1a80      	subs	r0, r0, r2
100025a6:	d200      	bcs.n	100025aa <last0+0x12>
100025a8:	3901      	subs	r1, #1
100025aa:	0c22      	lsrs	r2, r4, #16
100025ac:	4372      	muls	r2, r6
100025ae:	0c13      	lsrs	r3, r2, #16
100025b0:	0412      	lsls	r2, r2, #16
100025b2:	1a82      	subs	r2, r0, r2
100025b4:	4199      	sbcs	r1, r3
100025b6:	000b      	movs	r3, r1
100025b8:	4670      	mov	r0, lr
100025ba:	3504      	adds	r5, #4
100025bc:	3713      	adds	r7, #19
100025be:	0001      	movs	r1, r0
100025c0:	40f9      	lsrs	r1, r7
100025c2:	40a8      	lsls	r0, r5
100025c4:	1980      	adds	r0, r0, r6
100025c6:	d300      	bcc.n	100025ca <last0+0x32>
100025c8:	3101      	adds	r1, #1
100025ca:	2b00      	cmp	r3, #0
100025cc:	d102      	bne.n	100025d4 <last0+0x3c>
100025ce:	42a2      	cmp	r2, r4
100025d0:	d20a      	bcs.n	100025e8 <last0+0x50>
100025d2:	bdf0      	pop	{r4, r5, r6, r7, pc}
100025d4:	3001      	adds	r0, #1
100025d6:	d300      	bcc.n	100025da <last0+0x42>
100025d8:	3101      	adds	r1, #1
100025da:	1b12      	subs	r2, r2, r4
100025dc:	d2fa      	bcs.n	100025d4 <last0+0x3c>
100025de:	3b01      	subs	r3, #1
100025e0:	d1f8      	bne.n	100025d4 <last0+0x3c>
100025e2:	42a2      	cmp	r2, r4
100025e4:	d200      	bcs.n	100025e8 <last0+0x50>
100025e6:	bdf0      	pop	{r4, r5, r6, r7, pc}
100025e8:	3001      	adds	r0, #1
100025ea:	d300      	bcc.n	100025ee <last0+0x56>
100025ec:	3101      	adds	r1, #1
100025ee:	1b12      	subs	r2, r2, r4
100025f0:	e7f7      	b.n	100025e2 <last0+0x4a>

100025f2 <y64_x48>:
100025f2:	b5f0      	push	{r4, r5, r6, r7, lr}
100025f4:	0c1c      	lsrs	r4, r3, #16
100025f6:	d000      	beq.n	100025fa <y64_x48+0x8>
100025f8:	e080      	b.n	100026fc <y64_x64>
100025fa:	b40c      	push	{r2, r3}
100025fc:	2500      	movs	r5, #0
100025fe:	0a1c      	lsrs	r4, r3, #8
10002600:	d104      	bne.n	1000260c <y64_x48+0x1a>
10002602:	021b      	lsls	r3, r3, #8
10002604:	0e16      	lsrs	r6, r2, #24
10002606:	4333      	orrs	r3, r6
10002608:	0212      	lsls	r2, r2, #8
1000260a:	3508      	adds	r5, #8
1000260c:	0b1c      	lsrs	r4, r3, #12
1000260e:	d104      	bne.n	1000261a <y64_x48+0x28>
10002610:	011b      	lsls	r3, r3, #4
10002612:	0f16      	lsrs	r6, r2, #28
10002614:	4333      	orrs	r3, r6
10002616:	0112      	lsls	r2, r2, #4
10002618:	3504      	adds	r5, #4
1000261a:	0b9c      	lsrs	r4, r3, #14
1000261c:	d104      	bne.n	10002628 <y64_x48+0x36>
1000261e:	009b      	lsls	r3, r3, #2
10002620:	0f96      	lsrs	r6, r2, #30
10002622:	4333      	orrs	r3, r6
10002624:	0092      	lsls	r2, r2, #2
10002626:	3502      	adds	r5, #2
10002628:	0bdc      	lsrs	r4, r3, #15
1000262a:	d102      	bne.n	10002632 <y64_x48+0x40>
1000262c:	1892      	adds	r2, r2, r2
1000262e:	415b      	adcs	r3, r3
10002630:	3501      	adds	r5, #1
10002632:	001c      	movs	r4, r3
10002634:	1897      	adds	r7, r2, r2
10002636:	4164      	adcs	r4, r4
10002638:	3401      	adds	r4, #1
1000263a:	4f46      	ldr	r7, [pc, #280]	; (10002754 <y64_x64+0x58>)
1000263c:	667c      	str	r4, [r7, #100]	; 0x64
1000263e:	4c46      	ldr	r4, [pc, #280]	; (10002758 <y64_x64+0x5c>)
10002640:	663c      	str	r4, [r7, #96]	; 0x60
10002642:	0c0e      	lsrs	r6, r1, #16
10002644:	e7ff      	b.n	10002646 <y64_x48+0x54>
10002646:	e7ff      	b.n	10002648 <y64_x48+0x56>
10002648:	e7ff      	b.n	1000264a <y64_x48+0x58>
1000264a:	46c0      	nop			; (mov r8, r8)
1000264c:	6f3c      	ldr	r4, [r7, #112]	; 0x70
1000264e:	4366      	muls	r6, r4
10002650:	0c36      	lsrs	r6, r6, #16
10002652:	0377      	lsls	r7, r6, #13
10002654:	46be      	mov	lr, r7
10002656:	b297      	uxth	r7, r2
10002658:	4377      	muls	r7, r6
1000265a:	1bc0      	subs	r0, r0, r7
1000265c:	d200      	bcs.n	10002660 <y64_x48+0x6e>
1000265e:	3901      	subs	r1, #1
10002660:	1bc0      	subs	r0, r0, r7
10002662:	d200      	bcs.n	10002666 <y64_x48+0x74>
10002664:	3901      	subs	r1, #1
10002666:	b29f      	uxth	r7, r3
10002668:	4377      	muls	r7, r6
1000266a:	1bc9      	subs	r1, r1, r7
1000266c:	1bc9      	subs	r1, r1, r7
1000266e:	0c17      	lsrs	r7, r2, #16
10002670:	4377      	muls	r7, r6
10002672:	047e      	lsls	r6, r7, #17
10002674:	0bff      	lsrs	r7, r7, #15
10002676:	1b80      	subs	r0, r0, r6
10002678:	41b9      	sbcs	r1, r7
1000267a:	08ce      	lsrs	r6, r1, #3
1000267c:	4366      	muls	r6, r4
1000267e:	0c36      	lsrs	r6, r6, #16
10002680:	2d0c      	cmp	r5, #12
10002682:	db33      	blt.n	100026ec <last1>
10002684:	44b6      	add	lr, r6
10002686:	0b12      	lsrs	r2, r2, #12
10002688:	051f      	lsls	r7, r3, #20
1000268a:	433a      	orrs	r2, r7
1000268c:	0b1b      	lsrs	r3, r3, #12
1000268e:	b297      	uxth	r7, r2
10002690:	4377      	muls	r7, r6
10002692:	1bc0      	subs	r0, r0, r7
10002694:	d200      	bcs.n	10002698 <y64_x48+0xa6>
10002696:	3901      	subs	r1, #1
10002698:	b29f      	uxth	r7, r3
1000269a:	4377      	muls	r7, r6
1000269c:	1bc9      	subs	r1, r1, r7
1000269e:	0c17      	lsrs	r7, r2, #16
100026a0:	4377      	muls	r7, r6
100026a2:	043e      	lsls	r6, r7, #16
100026a4:	0c3f      	lsrs	r7, r7, #16
100026a6:	1b80      	subs	r0, r0, r6
100026a8:	41b9      	sbcs	r1, r7
100026aa:	0d86      	lsrs	r6, r0, #22
100026ac:	028f      	lsls	r7, r1, #10
100026ae:	433e      	orrs	r6, r7
100026b0:	4366      	muls	r6, r4
100026b2:	2729      	movs	r7, #41	; 0x29
100026b4:	1b7f      	subs	r7, r7, r5
100026b6:	40fe      	lsrs	r6, r7
100026b8:	3d0c      	subs	r5, #12
100026ba:	4677      	mov	r7, lr
100026bc:	40af      	lsls	r7, r5
100026be:	19bf      	adds	r7, r7, r6
100026c0:	bc30      	pop	{r4, r5}
100026c2:	b2a2      	uxth	r2, r4
100026c4:	b2ab      	uxth	r3, r5
100026c6:	4372      	muls	r2, r6
100026c8:	4373      	muls	r3, r6
100026ca:	1a80      	subs	r0, r0, r2
100026cc:	4199      	sbcs	r1, r3
100026ce:	0c22      	lsrs	r2, r4, #16
100026d0:	4372      	muls	r2, r6
100026d2:	0c13      	lsrs	r3, r2, #16
100026d4:	0412      	lsls	r2, r2, #16
100026d6:	1a80      	subs	r0, r0, r2
100026d8:	4199      	sbcs	r1, r3
100026da:	0002      	movs	r2, r0
100026dc:	000b      	movs	r3, r1
100026de:	3701      	adds	r7, #1
100026e0:	1b00      	subs	r0, r0, r4
100026e2:	41a9      	sbcs	r1, r5
100026e4:	d2f9      	bcs.n	100026da <y64_x48+0xe8>
100026e6:	1e78      	subs	r0, r7, #1
100026e8:	2100      	movs	r1, #0
100026ea:	bdf0      	pop	{r4, r5, r6, r7, pc}

100026ec <last1>:
100026ec:	270c      	movs	r7, #12
100026ee:	1b7f      	subs	r7, r7, r5
100026f0:	40fe      	lsrs	r6, r7
100026f2:	4677      	mov	r7, lr
100026f4:	0b7f      	lsrs	r7, r7, #13
100026f6:	40af      	lsls	r7, r5
100026f8:	19ff      	adds	r7, r7, r7
100026fa:	e7e0      	b.n	100026be <y64_x48+0xcc>

100026fc <y64_x64>:
100026fc:	2400      	movs	r4, #0
100026fe:	1c5d      	adds	r5, r3, #1
10002700:	d007      	beq.n	10002712 <y64_x64+0x16>
10002702:	4f14      	ldr	r7, [pc, #80]	; (10002754 <y64_x64+0x58>)
10002704:	667d      	str	r5, [r7, #100]	; 0x64
10002706:	6639      	str	r1, [r7, #96]	; 0x60
10002708:	e7ff      	b.n	1000270a <y64_x64+0xe>
1000270a:	e7ff      	b.n	1000270c <y64_x64+0x10>
1000270c:	e7ff      	b.n	1000270e <y64_x64+0x12>
1000270e:	e7ff      	b.n	10002710 <y64_x64+0x14>
10002710:	6f3c      	ldr	r4, [r7, #112]	; 0x70
10002712:	b295      	uxth	r5, r2
10002714:	b29e      	uxth	r6, r3
10002716:	4365      	muls	r5, r4
10002718:	4366      	muls	r6, r4
1000271a:	1b40      	subs	r0, r0, r5
1000271c:	41b1      	sbcs	r1, r6
1000271e:	0c15      	lsrs	r5, r2, #16
10002720:	0c1e      	lsrs	r6, r3, #16
10002722:	4365      	muls	r5, r4
10002724:	4366      	muls	r6, r4
10002726:	0436      	lsls	r6, r6, #16
10002728:	0c2f      	lsrs	r7, r5, #16
1000272a:	433e      	orrs	r6, r7
1000272c:	042d      	lsls	r5, r5, #16
1000272e:	1b40      	subs	r0, r0, r5
10002730:	41b1      	sbcs	r1, r6
10002732:	4299      	cmp	r1, r3
10002734:	d204      	bcs.n	10002740 <y64_x64+0x44>
10002736:	0002      	movs	r2, r0
10002738:	000b      	movs	r3, r1
1000273a:	0020      	movs	r0, r4
1000273c:	2100      	movs	r1, #0
1000273e:	bdf0      	pop	{r4, r5, r6, r7, pc}
10002740:	d101      	bne.n	10002746 <y64_x64+0x4a>
10002742:	4290      	cmp	r0, r2
10002744:	d3f7      	bcc.n	10002736 <y64_x64+0x3a>
10002746:	1a80      	subs	r0, r0, r2
10002748:	4199      	sbcs	r1, r3
1000274a:	3401      	adds	r4, #1
1000274c:	4299      	cmp	r1, r3
1000274e:	d3f2      	bcc.n	10002736 <y64_x64+0x3a>
10002750:	e7f6      	b.n	10002740 <y64_x64+0x44>
10002752:	0000      	.short	0x0000
10002754:	d0000000 	.word	0xd0000000
10002758:	ffffffff 	.word	0xffffffff

1000275c <__aeabi_double_init>:
1000275c:	b510      	push	{r4, lr}
1000275e:	2313      	movs	r3, #19
10002760:	781c      	ldrb	r4, [r3, #0]
10002762:	2c01      	cmp	r4, #1
10002764:	d010      	beq.n	10002788 <__aeabi_double_init+0x2c>
10002766:	dd07      	ble.n	10002778 <__aeabi_double_init+0x1c>
10002768:	480d      	ldr	r0, [pc, #52]	; (100027a0 <__aeabi_double_init+0x44>)
1000276a:	f7ff fd79 	bl	10002260 <rom_data_lookup>
1000276e:	0001      	movs	r1, r0
10002770:	2280      	movs	r2, #128	; 0x80
10002772:	480c      	ldr	r0, [pc, #48]	; (100027a4 <__aeabi_double_init+0x48>)
10002774:	f000 f880 	bl	10002878 <__wrap___aeabi_memcpy>
10002778:	2c02      	cmp	r4, #2
1000277a:	dd0c      	ble.n	10002796 <__aeabi_double_init+0x3a>
1000277c:	480a      	ldr	r0, [pc, #40]	; (100027a8 <__aeabi_double_init+0x4c>)
1000277e:	f7ff fd67 	bl	10002250 <rom_func_lookup>
10002782:	4b0a      	ldr	r3, [pc, #40]	; (100027ac <__aeabi_double_init+0x50>)
10002784:	6018      	str	r0, [r3, #0]
10002786:	bd10      	pop	{r4, pc}
10002788:	4b06      	ldr	r3, [pc, #24]	; (100027a4 <__aeabi_double_init+0x48>)
1000278a:	0019      	movs	r1, r3
1000278c:	3180      	adds	r1, #128	; 0x80
1000278e:	4a08      	ldr	r2, [pc, #32]	; (100027b0 <__aeabi_double_init+0x54>)
10002790:	c304      	stmia	r3!, {r2}
10002792:	428b      	cmp	r3, r1
10002794:	d1fc      	bne.n	10002790 <__aeabi_double_init+0x34>
10002796:	4b03      	ldr	r3, [pc, #12]	; (100027a4 <__aeabi_double_init+0x48>)
10002798:	4a05      	ldr	r2, [pc, #20]	; (100027b0 <__aeabi_double_init+0x54>)
1000279a:	649a      	str	r2, [r3, #72]	; 0x48
1000279c:	e7ee      	b.n	1000277c <__aeabi_double_init+0x20>
1000279e:	46c0      	nop			; (mov r8, r8)
100027a0:	00004453 	.word	0x00004453
100027a4:	200004b8 	.word	0x200004b8
100027a8:	0000334c 	.word	0x0000334c
100027ac:	200005b8 	.word	0x200005b8
100027b0:	100027b5 	.word	0x100027b5

100027b4 <double_table_shim_on_use_helper>:
100027b4:	b507      	push	{r0, r1, r2, lr}
100027b6:	4660      	mov	r0, ip
100027b8:	8801      	ldrh	r1, [r0, #0]
100027ba:	0a0a      	lsrs	r2, r1, #8
100027bc:	3002      	adds	r0, #2
100027be:	2adf      	cmp	r2, #223	; 0xdf
100027c0:	d1fa      	bne.n	100027b8 <double_table_shim_on_use_helper+0x4>
100027c2:	b2c9      	uxtb	r1, r1
100027c4:	0882      	lsrs	r2, r0, #2
100027c6:	d304      	bcc.n	100027d2 <double_table_shim_on_use_helper+0x1e>
100027c8:	8802      	ldrh	r2, [r0, #0]
100027ca:	8840      	ldrh	r0, [r0, #2]
100027cc:	0400      	lsls	r0, r0, #16
100027ce:	4310      	orrs	r0, r2
100027d0:	e000      	b.n	100027d4 <double_table_shim_on_use_helper+0x20>
100027d2:	6800      	ldr	r0, [r0, #0]
100027d4:	4a01      	ldr	r2, [pc, #4]	; (100027dc <double_table_shim_on_use_helper+0x28>)
100027d6:	5050      	str	r0, [r2, r1]
100027d8:	9003      	str	r0, [sp, #12]
100027da:	bd07      	pop	{r0, r1, r2, pc}
100027dc:	200004b8 	.word	0x200004b8

100027e0 <__aeabi_float_init>:
100027e0:	b510      	push	{r4, lr}
100027e2:	2313      	movs	r3, #19
100027e4:	781c      	ldrb	r4, [r3, #0]
100027e6:	4810      	ldr	r0, [pc, #64]	; (10002828 <__aeabi_float_init+0x48>)
100027e8:	f7ff fd3a 	bl	10002260 <rom_data_lookup>
100027ec:	0001      	movs	r1, r0
100027ee:	2c01      	cmp	r4, #1
100027f0:	d00a      	beq.n	10002808 <__aeabi_float_init+0x28>
100027f2:	dd03      	ble.n	100027fc <__aeabi_float_init+0x1c>
100027f4:	2280      	movs	r2, #128	; 0x80
100027f6:	480d      	ldr	r0, [pc, #52]	; (1000282c <__aeabi_float_init+0x4c>)
100027f8:	f000 f83e 	bl	10002878 <__wrap___aeabi_memcpy>
100027fc:	480c      	ldr	r0, [pc, #48]	; (10002830 <__aeabi_float_init+0x50>)
100027fe:	f7ff fd27 	bl	10002250 <rom_func_lookup>
10002802:	4b0c      	ldr	r3, [pc, #48]	; (10002834 <__aeabi_float_init+0x54>)
10002804:	6018      	str	r0, [r3, #0]
10002806:	bd10      	pop	{r4, pc}
10002808:	4c08      	ldr	r4, [pc, #32]	; (1000282c <__aeabi_float_init+0x4c>)
1000280a:	2254      	movs	r2, #84	; 0x54
1000280c:	0020      	movs	r0, r4
1000280e:	f000 f833 	bl	10002878 <__wrap___aeabi_memcpy>
10002812:	0023      	movs	r3, r4
10002814:	3354      	adds	r3, #84	; 0x54
10002816:	3480      	adds	r4, #128	; 0x80
10002818:	4a07      	ldr	r2, [pc, #28]	; (10002838 <__aeabi_float_init+0x58>)
1000281a:	c304      	stmia	r3!, {r2}
1000281c:	42a3      	cmp	r3, r4
1000281e:	d1fc      	bne.n	1000281a <__aeabi_float_init+0x3a>
10002820:	4b02      	ldr	r3, [pc, #8]	; (1000282c <__aeabi_float_init+0x4c>)
10002822:	621a      	str	r2, [r3, #32]
10002824:	61da      	str	r2, [r3, #28]
10002826:	e7e9      	b.n	100027fc <__aeabi_float_init+0x1c>
10002828:	00004653 	.word	0x00004653
1000282c:	200005bc 	.word	0x200005bc
10002830:	0000334c 	.word	0x0000334c
10002834:	200005b8 	.word	0x200005b8
10002838:	1000283d 	.word	0x1000283d

1000283c <float_table_shim_on_use_helper>:
1000283c:	b507      	push	{r0, r1, r2, lr}
1000283e:	4660      	mov	r0, ip
10002840:	8801      	ldrh	r1, [r0, #0]
10002842:	0a0a      	lsrs	r2, r1, #8
10002844:	3002      	adds	r0, #2
10002846:	2adf      	cmp	r2, #223	; 0xdf
10002848:	d1fa      	bne.n	10002840 <float_table_shim_on_use_helper+0x4>
1000284a:	b2c9      	uxtb	r1, r1
1000284c:	0882      	lsrs	r2, r0, #2
1000284e:	d304      	bcc.n	1000285a <float_table_shim_on_use_helper+0x1e>
10002850:	8802      	ldrh	r2, [r0, #0]
10002852:	8840      	ldrh	r0, [r0, #2]
10002854:	0400      	lsls	r0, r0, #16
10002856:	4310      	orrs	r0, r2
10002858:	e000      	b.n	1000285c <float_table_shim_on_use_helper+0x20>
1000285a:	6800      	ldr	r0, [r0, #0]
1000285c:	4a01      	ldr	r2, [pc, #4]	; (10002864 <float_table_shim_on_use_helper+0x28>)
1000285e:	5050      	str	r0, [r2, r1]
10002860:	9003      	str	r0, [sp, #12]
10002862:	bd07      	pop	{r0, r1, r2, pc}
10002864:	200005bc 	.word	0x200005bc

10002868 <__aeabi_mem_init>:
10002868:	4801      	ldr	r0, [pc, #4]	; (10002870 <__aeabi_mem_init+0x8>)
1000286a:	2104      	movs	r1, #4
1000286c:	4b01      	ldr	r3, [pc, #4]	; (10002874 <__aeabi_mem_init+0xc>)
1000286e:	4718      	bx	r3
10002870:	200002b0 	.word	0x200002b0
10002874:	10002271 	.word	0x10002271

10002878 <__wrap___aeabi_memcpy>:
10002878:	4b01      	ldr	r3, [pc, #4]	; (10002880 <__wrap___aeabi_memcpy+0x8>)
1000287a:	685b      	ldr	r3, [r3, #4]
1000287c:	4718      	bx	r3
1000287e:	0000      	.short	0x0000
10002880:	200002b0 	.word	0x200002b0

10002884 <stdio_out_chars_no_crlf>:
10002884:	b510      	push	{r4, lr}
10002886:	0003      	movs	r3, r0
10002888:	0008      	movs	r0, r1
1000288a:	0011      	movs	r1, r2
1000288c:	681b      	ldr	r3, [r3, #0]
1000288e:	4798      	blx	r3
10002890:	bd10      	pop	{r4, pc}
	...

10002894 <stdio_out_chars_crlf>:
10002894:	b5f0      	push	{r4, r5, r6, r7, lr}
10002896:	46ce      	mov	lr, r9
10002898:	b500      	push	{lr}
1000289a:	b082      	sub	sp, #8
1000289c:	0007      	movs	r7, r0
1000289e:	000d      	movs	r5, r1
100028a0:	0016      	movs	r6, r2
100028a2:	7d43      	ldrb	r3, [r0, #21]
100028a4:	2b00      	cmp	r3, #0
100028a6:	d006      	beq.n	100028b6 <stdio_out_chars_crlf+0x22>
100028a8:	2400      	movs	r4, #0
100028aa:	2000      	movs	r0, #0
100028ac:	2a00      	cmp	r2, #0
100028ae:	dd34      	ble.n	1000291a <stdio_out_chars_crlf+0x86>
100028b0:	1e4b      	subs	r3, r1, #1
100028b2:	4699      	mov	r9, r3
100028b4:	e00f      	b.n	100028d6 <stdio_out_chars_crlf+0x42>
100028b6:	6803      	ldr	r3, [r0, #0]
100028b8:	0011      	movs	r1, r2
100028ba:	0028      	movs	r0, r5
100028bc:	4798      	blx	r3
100028be:	e02c      	b.n	1000291a <stdio_out_chars_crlf+0x86>
100028c0:	7d3b      	ldrb	r3, [r7, #20]
100028c2:	e010      	b.n	100028e6 <stdio_out_chars_crlf+0x52>
100028c4:	2102      	movs	r1, #2
100028c6:	4817      	ldr	r0, [pc, #92]	; (10002924 <stdio_out_chars_crlf+0x90>)
100028c8:	683b      	ldr	r3, [r7, #0]
100028ca:	4798      	blx	r3
100028cc:	9801      	ldr	r0, [sp, #4]
100028ce:	3001      	adds	r0, #1
100028d0:	3401      	adds	r4, #1
100028d2:	42a6      	cmp	r6, r4
100028d4:	d014      	beq.n	10002900 <stdio_out_chars_crlf+0x6c>
100028d6:	2c00      	cmp	r4, #0
100028d8:	ddf2      	ble.n	100028c0 <stdio_out_chars_crlf+0x2c>
100028da:	464b      	mov	r3, r9
100028dc:	5d1b      	ldrb	r3, [r3, r4]
100028de:	3b0d      	subs	r3, #13
100028e0:	425a      	negs	r2, r3
100028e2:	4153      	adcs	r3, r2
100028e4:	b2db      	uxtb	r3, r3
100028e6:	9401      	str	r4, [sp, #4]
100028e8:	5d2a      	ldrb	r2, [r5, r4]
100028ea:	2a0a      	cmp	r2, #10
100028ec:	d1f0      	bne.n	100028d0 <stdio_out_chars_crlf+0x3c>
100028ee:	2b00      	cmp	r3, #0
100028f0:	d1ee      	bne.n	100028d0 <stdio_out_chars_crlf+0x3c>
100028f2:	42a0      	cmp	r0, r4
100028f4:	dae6      	bge.n	100028c4 <stdio_out_chars_crlf+0x30>
100028f6:	1a21      	subs	r1, r4, r0
100028f8:	1828      	adds	r0, r5, r0
100028fa:	683b      	ldr	r3, [r7, #0]
100028fc:	4798      	blx	r3
100028fe:	e7e1      	b.n	100028c4 <stdio_out_chars_crlf+0x30>
10002900:	42a0      	cmp	r0, r4
10002902:	da03      	bge.n	1000290c <stdio_out_chars_crlf+0x78>
10002904:	1a21      	subs	r1, r4, r0
10002906:	1828      	adds	r0, r5, r0
10002908:	683b      	ldr	r3, [r7, #0]
1000290a:	4798      	blx	r3
1000290c:	19ad      	adds	r5, r5, r6
1000290e:	3d01      	subs	r5, #1
10002910:	782b      	ldrb	r3, [r5, #0]
10002912:	3b0d      	subs	r3, #13
10002914:	425a      	negs	r2, r3
10002916:	4153      	adcs	r3, r2
10002918:	753b      	strb	r3, [r7, #20]
1000291a:	b002      	add	sp, #8
1000291c:	bc80      	pop	{r7}
1000291e:	46b9      	mov	r9, r7
10002920:	bdf0      	pop	{r4, r5, r6, r7, pc}
10002922:	46c0      	nop			; (mov r8, r8)
10002924:	10002f24 	.word	0x10002f24

10002928 <stdout_serialize_begin>:
10002928:	b510      	push	{r4, lr}
1000292a:	f7ff f85b 	bl	100019e4 <time_us_64>
1000292e:	4a07      	ldr	r2, [pc, #28]	; (1000294c <stdout_serialize_begin+0x24>)
10002930:	2300      	movs	r3, #0
10002932:	1812      	adds	r2, r2, r0
10002934:	414b      	adcs	r3, r1
10002936:	2b00      	cmp	r3, #0
10002938:	db03      	blt.n	10002942 <stdout_serialize_begin+0x1a>
1000293a:	4805      	ldr	r0, [pc, #20]	; (10002950 <stdout_serialize_begin+0x28>)
1000293c:	f000 fa30 	bl	10002da0 <__mutex_try_enter_block_until_veneer>
10002940:	bd10      	pop	{r4, pc}
10002942:	2201      	movs	r2, #1
10002944:	4252      	negs	r2, r2
10002946:	4b03      	ldr	r3, [pc, #12]	; (10002954 <stdout_serialize_begin+0x2c>)
10002948:	e7f7      	b.n	1000293a <stdout_serialize_begin+0x12>
1000294a:	46c0      	nop			; (mov r8, r8)
1000294c:	000f4240 	.word	0x000f4240
10002950:	200002c0 	.word	0x200002c0
10002954:	7fffffff 	.word	0x7fffffff

10002958 <stdout_serialize_end>:
10002958:	b510      	push	{r4, lr}
1000295a:	4802      	ldr	r0, [pc, #8]	; (10002964 <stdout_serialize_end+0xc>)
1000295c:	f000 fa08 	bl	10002d70 <__mutex_exit_veneer>
10002960:	bd10      	pop	{r4, pc}
10002962:	46c0      	nop			; (mov r8, r8)
10002964:	200002c0 	.word	0x200002c0

10002968 <stdio_put_string>:
10002968:	b5f0      	push	{r4, r5, r6, r7, lr}
1000296a:	46de      	mov	lr, fp
1000296c:	4657      	mov	r7, sl
1000296e:	464e      	mov	r6, r9
10002970:	4645      	mov	r5, r8
10002972:	b5e0      	push	{r5, r6, r7, lr}
10002974:	b083      	sub	sp, #12
10002976:	4680      	mov	r8, r0
10002978:	000d      	movs	r5, r1
1000297a:	4691      	mov	r9, r2
1000297c:	001c      	movs	r4, r3
1000297e:	f7ff ffd3 	bl	10002928 <stdout_serialize_begin>
10002982:	4682      	mov	sl, r0
10002984:	1c6b      	adds	r3, r5, #1
10002986:	d00a      	beq.n	1000299e <stdio_put_string+0x36>
10002988:	2c00      	cmp	r4, #0
1000298a:	d10d      	bne.n	100029a8 <stdio_put_string+0x40>
1000298c:	4f1c      	ldr	r7, [pc, #112]	; (10002a00 <stdio_put_string+0x98>)
1000298e:	4b1d      	ldr	r3, [pc, #116]	; (10002a04 <stdio_put_string+0x9c>)
10002990:	681c      	ldr	r4, [r3, #0]
10002992:	2c00      	cmp	r4, #0
10002994:	d024      	beq.n	100029e0 <stdio_put_string+0x78>
10002996:	4e1c      	ldr	r6, [pc, #112]	; (10002a08 <stdio_put_string+0xa0>)
10002998:	230a      	movs	r3, #10
1000299a:	469b      	mov	fp, r3
1000299c:	e009      	b.n	100029b2 <stdio_put_string+0x4a>
1000299e:	4640      	mov	r0, r8
100029a0:	f000 f9b6 	bl	10002d10 <strlen>
100029a4:	0005      	movs	r5, r0
100029a6:	e7ef      	b.n	10002988 <stdio_put_string+0x20>
100029a8:	4f18      	ldr	r7, [pc, #96]	; (10002a0c <stdio_put_string+0xa4>)
100029aa:	e7f0      	b.n	1000298e <stdio_put_string+0x26>
100029ac:	6924      	ldr	r4, [r4, #16]
100029ae:	2c00      	cmp	r4, #0
100029b0:	d016      	beq.n	100029e0 <stdio_put_string+0x78>
100029b2:	6823      	ldr	r3, [r4, #0]
100029b4:	2b00      	cmp	r3, #0
100029b6:	d0f9      	beq.n	100029ac <stdio_put_string+0x44>
100029b8:	6833      	ldr	r3, [r6, #0]
100029ba:	2b00      	cmp	r3, #0
100029bc:	d001      	beq.n	100029c2 <stdio_put_string+0x5a>
100029be:	42a3      	cmp	r3, r4
100029c0:	d1f4      	bne.n	100029ac <stdio_put_string+0x44>
100029c2:	002a      	movs	r2, r5
100029c4:	4641      	mov	r1, r8
100029c6:	0020      	movs	r0, r4
100029c8:	47b8      	blx	r7
100029ca:	464b      	mov	r3, r9
100029cc:	2b00      	cmp	r3, #0
100029ce:	d0ed      	beq.n	100029ac <stdio_put_string+0x44>
100029d0:	466b      	mov	r3, sp
100029d2:	465a      	mov	r2, fp
100029d4:	71da      	strb	r2, [r3, #7]
100029d6:	2201      	movs	r2, #1
100029d8:	1dd9      	adds	r1, r3, #7
100029da:	0020      	movs	r0, r4
100029dc:	47b8      	blx	r7
100029de:	e7e5      	b.n	100029ac <stdio_put_string+0x44>
100029e0:	4653      	mov	r3, sl
100029e2:	2b00      	cmp	r3, #0
100029e4:	d109      	bne.n	100029fa <stdio_put_string+0x92>
100029e6:	1e6b      	subs	r3, r5, #1
100029e8:	419d      	sbcs	r5, r3
100029ea:	b2e8      	uxtb	r0, r5
100029ec:	b003      	add	sp, #12
100029ee:	bcf0      	pop	{r4, r5, r6, r7}
100029f0:	46bb      	mov	fp, r7
100029f2:	46b2      	mov	sl, r6
100029f4:	46a9      	mov	r9, r5
100029f6:	46a0      	mov	r8, r4
100029f8:	bdf0      	pop	{r4, r5, r6, r7, pc}
100029fa:	f7ff ffad 	bl	10002958 <stdout_serialize_end>
100029fe:	e7f2      	b.n	100029e6 <stdio_put_string+0x7e>
10002a00:	10002895 	.word	0x10002895
10002a04:	2000048c 	.word	0x2000048c
10002a08:	20000490 	.word	0x20000490
10002a0c:	10002885 	.word	0x10002885

10002a10 <__wrap_putchar>:
10002a10:	b510      	push	{r4, lr}
10002a12:	b082      	sub	sp, #8
10002a14:	0004      	movs	r4, r0
10002a16:	466b      	mov	r3, sp
10002a18:	1dd8      	adds	r0, r3, #7
10002a1a:	7004      	strb	r4, [r0, #0]
10002a1c:	2300      	movs	r3, #0
10002a1e:	2200      	movs	r2, #0
10002a20:	2101      	movs	r1, #1
10002a22:	f7ff ffa1 	bl	10002968 <stdio_put_string>
10002a26:	0020      	movs	r0, r4
10002a28:	b002      	add	sp, #8
10002a2a:	bd10      	pop	{r4, pc}

10002a2c <stdio_flush>:
10002a2c:	b510      	push	{r4, lr}
10002a2e:	4b06      	ldr	r3, [pc, #24]	; (10002a48 <stdio_flush+0x1c>)
10002a30:	681c      	ldr	r4, [r3, #0]
10002a32:	2c00      	cmp	r4, #0
10002a34:	d104      	bne.n	10002a40 <stdio_flush+0x14>
10002a36:	bd10      	pop	{r4, pc}
10002a38:	4798      	blx	r3
10002a3a:	6924      	ldr	r4, [r4, #16]
10002a3c:	2c00      	cmp	r4, #0
10002a3e:	d0fa      	beq.n	10002a36 <stdio_flush+0xa>
10002a40:	6863      	ldr	r3, [r4, #4]
10002a42:	2b00      	cmp	r3, #0
10002a44:	d1f8      	bne.n	10002a38 <stdio_flush+0xc>
10002a46:	e7f8      	b.n	10002a3a <stdio_flush+0xe>
10002a48:	2000048c 	.word	0x2000048c

10002a4c <__wrap_puts>:
10002a4c:	b570      	push	{r4, r5, r6, lr}
10002a4e:	0005      	movs	r5, r0
10002a50:	f000 f95e 	bl	10002d10 <strlen>
10002a54:	0004      	movs	r4, r0
10002a56:	2300      	movs	r3, #0
10002a58:	2201      	movs	r2, #1
10002a5a:	0001      	movs	r1, r0
10002a5c:	0028      	movs	r0, r5
10002a5e:	f7ff ff83 	bl	10002968 <stdio_put_string>
10002a62:	f7ff ffe3 	bl	10002a2c <stdio_flush>
10002a66:	0020      	movs	r0, r4
10002a68:	bd70      	pop	{r4, r5, r6, pc}
	...

10002a6c <_pio_find_offset_for_program>:
10002a6c:	b530      	push	{r4, r5, lr}
10002a6e:	4b18      	ldr	r3, [pc, #96]	; (10002ad0 <_pio_find_offset_for_program+0x64>)
10002a70:	469c      	mov	ip, r3
10002a72:	4460      	add	r0, ip
10002a74:	4243      	negs	r3, r0
10002a76:	4158      	adcs	r0, r3
10002a78:	0080      	lsls	r0, r0, #2
10002a7a:	4b16      	ldr	r3, [pc, #88]	; (10002ad4 <_pio_find_offset_for_program+0x68>)
10002a7c:	58c4      	ldr	r4, [r0, r3]
10002a7e:	790d      	ldrb	r5, [r1, #4]
10002a80:	2301      	movs	r3, #1
10002a82:	40ab      	lsls	r3, r5
10002a84:	3b01      	subs	r3, #1
10002a86:	2205      	movs	r2, #5
10002a88:	568a      	ldrsb	r2, [r1, r2]
10002a8a:	2a00      	cmp	r2, #0
10002a8c:	db08      	blt.n	10002aa0 <_pio_find_offset_for_program+0x34>
10002a8e:	0010      	movs	r0, r2
10002a90:	2120      	movs	r1, #32
10002a92:	1b4d      	subs	r5, r1, r5
10002a94:	42aa      	cmp	r2, r5
10002a96:	dc11      	bgt.n	10002abc <_pio_find_offset_for_program+0x50>
10002a98:	4093      	lsls	r3, r2
10002a9a:	421c      	tst	r4, r3
10002a9c:	d111      	bne.n	10002ac2 <_pio_find_offset_for_program+0x56>
10002a9e:	bd30      	pop	{r4, r5, pc}
10002aa0:	2020      	movs	r0, #32
10002aa2:	1b40      	subs	r0, r0, r5
10002aa4:	d410      	bmi.n	10002ac8 <_pio_find_offset_for_program+0x5c>
10002aa6:	001a      	movs	r2, r3
10002aa8:	4082      	lsls	r2, r0
10002aaa:	4214      	tst	r4, r2
10002aac:	d0f7      	beq.n	10002a9e <_pio_find_offset_for_program+0x32>
10002aae:	3801      	subs	r0, #1
10002ab0:	d3f5      	bcc.n	10002a9e <_pio_find_offset_for_program+0x32>
10002ab2:	001a      	movs	r2, r3
10002ab4:	4082      	lsls	r2, r0
10002ab6:	4214      	tst	r4, r2
10002ab8:	d1f9      	bne.n	10002aae <_pio_find_offset_for_program+0x42>
10002aba:	e7f0      	b.n	10002a9e <_pio_find_offset_for_program+0x32>
10002abc:	2001      	movs	r0, #1
10002abe:	4240      	negs	r0, r0
10002ac0:	e7ed      	b.n	10002a9e <_pio_find_offset_for_program+0x32>
10002ac2:	2001      	movs	r0, #1
10002ac4:	4240      	negs	r0, r0
10002ac6:	e7ea      	b.n	10002a9e <_pio_find_offset_for_program+0x32>
10002ac8:	2001      	movs	r0, #1
10002aca:	4240      	negs	r0, r0
10002acc:	e7e7      	b.n	10002a9e <_pio_find_offset_for_program+0x32>
10002ace:	46c0      	nop			; (mov r8, r8)
10002ad0:	afd00000 	.word	0xafd00000
10002ad4:	200003fc 	.word	0x200003fc

10002ad8 <_pio_add_program_at_offset>:
10002ad8:	b5f8      	push	{r3, r4, r5, r6, r7, lr}
10002ada:	2305      	movs	r3, #5
10002adc:	56cb      	ldrsb	r3, [r1, r3]
10002ade:	2b00      	cmp	r3, #0
10002ae0:	db01      	blt.n	10002ae6 <_pio_add_program_at_offset+0xe>
10002ae2:	429a      	cmp	r2, r3
10002ae4:	d11e      	bne.n	10002b24 <_pio_add_program_at_offset+0x4c>
10002ae6:	4b1d      	ldr	r3, [pc, #116]	; (10002b5c <_pio_add_program_at_offset+0x84>)
10002ae8:	18c7      	adds	r7, r0, r3
10002aea:	427b      	negs	r3, r7
10002aec:	415f      	adcs	r7, r3
10002aee:	00bc      	lsls	r4, r7, #2
10002af0:	4b1b      	ldr	r3, [pc, #108]	; (10002b60 <_pio_add_program_at_offset+0x88>)
10002af2:	58e3      	ldr	r3, [r4, r3]
10002af4:	469c      	mov	ip, r3
10002af6:	790b      	ldrb	r3, [r1, #4]
10002af8:	2401      	movs	r4, #1
10002afa:	409c      	lsls	r4, r3
10002afc:	3c01      	subs	r4, #1
10002afe:	4094      	lsls	r4, r2
10002b00:	4666      	mov	r6, ip
10002b02:	4026      	ands	r6, r4
10002b04:	4665      	mov	r5, ip
10002b06:	4225      	tst	r5, r4
10002b08:	d10c      	bne.n	10002b24 <_pio_add_program_at_offset+0x4c>
10002b0a:	2b00      	cmp	r3, #0
10002b0c:	d115      	bne.n	10002b3a <_pio_add_program_at_offset+0x62>
10002b0e:	00bf      	lsls	r7, r7, #2
10002b10:	2101      	movs	r1, #1
10002b12:	4099      	lsls	r1, r3
10002b14:	000b      	movs	r3, r1
10002b16:	3b01      	subs	r3, #1
10002b18:	4093      	lsls	r3, r2
10002b1a:	4662      	mov	r2, ip
10002b1c:	4313      	orrs	r3, r2
10002b1e:	4a10      	ldr	r2, [pc, #64]	; (10002b60 <_pio_add_program_at_offset+0x88>)
10002b20:	50bb      	str	r3, [r7, r2]
10002b22:	bdf8      	pop	{r3, r4, r5, r6, r7, pc}
10002b24:	480f      	ldr	r0, [pc, #60]	; (10002b64 <_pio_add_program_at_offset+0x8c>)
10002b26:	f7ff fb4d 	bl	100021c4 <panic>
10002b2a:	1993      	adds	r3, r2, r6
10002b2c:	3312      	adds	r3, #18
10002b2e:	009b      	lsls	r3, r3, #2
10002b30:	501c      	str	r4, [r3, r0]
10002b32:	3601      	adds	r6, #1
10002b34:	790b      	ldrb	r3, [r1, #4]
10002b36:	42b3      	cmp	r3, r6
10002b38:	d9e9      	bls.n	10002b0e <_pio_add_program_at_offset+0x36>
10002b3a:	780b      	ldrb	r3, [r1, #0]
10002b3c:	784d      	ldrb	r5, [r1, #1]
10002b3e:	022d      	lsls	r5, r5, #8
10002b40:	431d      	orrs	r5, r3
10002b42:	788c      	ldrb	r4, [r1, #2]
10002b44:	0424      	lsls	r4, r4, #16
10002b46:	4325      	orrs	r5, r4
10002b48:	78cb      	ldrb	r3, [r1, #3]
10002b4a:	061b      	lsls	r3, r3, #24
10002b4c:	432b      	orrs	r3, r5
10002b4e:	0074      	lsls	r4, r6, #1
10002b50:	5ae4      	ldrh	r4, [r4, r3]
10002b52:	0b63      	lsrs	r3, r4, #13
10002b54:	d1e9      	bne.n	10002b2a <_pio_add_program_at_offset+0x52>
10002b56:	18a4      	adds	r4, r4, r2
10002b58:	e7e7      	b.n	10002b2a <_pio_add_program_at_offset+0x52>
10002b5a:	46c0      	nop			; (mov r8, r8)
10002b5c:	afd00000 	.word	0xafd00000
10002b60:	200003fc 	.word	0x200003fc
10002b64:	10002f28 	.word	0x10002f28

10002b68 <pio_add_program>:
10002b68:	b5f8      	push	{r3, r4, r5, r6, r7, lr}
10002b6a:	0005      	movs	r5, r0
10002b6c:	000e      	movs	r6, r1
10002b6e:	f7fe f8ef 	bl	10000d50 <hw_claim_lock>
10002b72:	0007      	movs	r7, r0
10002b74:	0031      	movs	r1, r6
10002b76:	0028      	movs	r0, r5
10002b78:	f7ff ff78 	bl	10002a6c <_pio_find_offset_for_program>
10002b7c:	1e04      	subs	r4, r0, #0
10002b7e:	db09      	blt.n	10002b94 <pio_add_program+0x2c>
10002b80:	0002      	movs	r2, r0
10002b82:	0031      	movs	r1, r6
10002b84:	0028      	movs	r0, r5
10002b86:	f7ff ffa7 	bl	10002ad8 <_pio_add_program_at_offset>
10002b8a:	0038      	movs	r0, r7
10002b8c:	f7fe f8ec 	bl	10000d68 <hw_claim_unlock>
10002b90:	0020      	movs	r0, r4
10002b92:	bdf8      	pop	{r3, r4, r5, r6, r7, pc}
10002b94:	4801      	ldr	r0, [pc, #4]	; (10002b9c <pio_add_program+0x34>)
10002b96:	f7ff fb15 	bl	100021c4 <panic>
10002b9a:	46c0      	nop			; (mov r8, r8)
10002b9c:	10002f28 	.word	0x10002f28

10002ba0 <pio_sm_set_consecutive_pindirs>:
10002ba0:	b5f0      	push	{r4, r5, r6, r7, lr}
10002ba2:	46de      	mov	lr, fp
10002ba4:	4657      	mov	r7, sl
10002ba6:	464e      	mov	r6, r9
10002ba8:	4645      	mov	r5, r8
10002baa:	b5e0      	push	{r5, r6, r7, lr}
10002bac:	b083      	sub	sp, #12
10002bae:	ac0c      	add	r4, sp, #48	; 0x30
10002bb0:	7826      	ldrb	r6, [r4, #0]
10002bb2:	004c      	lsls	r4, r1, #1
10002bb4:	1865      	adds	r5, r4, r1
10002bb6:	00ed      	lsls	r5, r5, #3
10002bb8:	9001      	str	r0, [sp, #4]
10002bba:	4684      	mov	ip, r0
10002bbc:	4465      	add	r5, ip
10002bbe:	002f      	movs	r7, r5
10002bc0:	37dc      	adds	r7, #220	; 0xdc
10002bc2:	6838      	ldr	r0, [r7, #0]
10002bc4:	4683      	mov	fp, r0
10002bc6:	35cc      	adds	r5, #204	; 0xcc
10002bc8:	6828      	ldr	r0, [r5, #0]
10002bca:	4682      	mov	sl, r0
10002bcc:	1864      	adds	r4, r4, r1
10002bce:	00e4      	lsls	r4, r4, #3
10002bd0:	34cc      	adds	r4, #204	; 0xcc
10002bd2:	4464      	add	r4, ip
10002bd4:	25c0      	movs	r5, #192	; 0xc0
10002bd6:	01ad      	lsls	r5, r5, #6
10002bd8:	432c      	orrs	r4, r5
10002bda:	2580      	movs	r5, #128	; 0x80
10002bdc:	02ad      	lsls	r5, r5, #10
10002bde:	6025      	str	r5, [r4, #0]
10002be0:	1e74      	subs	r4, r6, #1
10002be2:	41a6      	sbcs	r6, r4
10002be4:	4276      	negs	r6, r6
10002be6:	241f      	movs	r4, #31
10002be8:	4034      	ands	r4, r6
10002bea:	46a1      	mov	r9, r4
10002bec:	2b05      	cmp	r3, #5
10002bee:	d918      	bls.n	10002c22 <pio_sm_set_consecutive_pindirs+0x82>
10002bf0:	20a0      	movs	r0, #160	; 0xa0
10002bf2:	0540      	lsls	r0, r0, #21
10002bf4:	4680      	mov	r8, r0
10002bf6:	004d      	lsls	r5, r1, #1
10002bf8:	186d      	adds	r5, r5, r1
10002bfa:	00ed      	lsls	r5, r5, #3
10002bfc:	4465      	add	r5, ip
10002bfe:	20dc      	movs	r0, #220	; 0xdc
10002c00:	4684      	mov	ip, r0
10002c02:	44ac      	add	ip, r5
10002c04:	4e17      	ldr	r6, [pc, #92]	; (10002c64 <pio_sm_set_consecutive_pindirs+0xc4>)
10002c06:	4326      	orrs	r6, r4
10002c08:	35d8      	adds	r5, #216	; 0xd8
10002c0a:	271f      	movs	r7, #31
10002c0c:	0154      	lsls	r4, r2, #5
10002c0e:	4640      	mov	r0, r8
10002c10:	4304      	orrs	r4, r0
10002c12:	4660      	mov	r0, ip
10002c14:	6004      	str	r4, [r0, #0]
10002c16:	602e      	str	r6, [r5, #0]
10002c18:	3b05      	subs	r3, #5
10002c1a:	3205      	adds	r2, #5
10002c1c:	403a      	ands	r2, r7
10002c1e:	2b05      	cmp	r3, #5
10002c20:	d8f4      	bhi.n	10002c0c <pio_sm_set_consecutive_pindirs+0x6c>
10002c22:	069b      	lsls	r3, r3, #26
10002c24:	0152      	lsls	r2, r2, #5
10002c26:	4313      	orrs	r3, r2
10002c28:	004c      	lsls	r4, r1, #1
10002c2a:	1862      	adds	r2, r4, r1
10002c2c:	00d2      	lsls	r2, r2, #3
10002c2e:	9e01      	ldr	r6, [sp, #4]
10002c30:	46b4      	mov	ip, r6
10002c32:	4462      	add	r2, ip
10002c34:	0015      	movs	r5, r2
10002c36:	35dc      	adds	r5, #220	; 0xdc
10002c38:	602b      	str	r3, [r5, #0]
10002c3a:	4b0a      	ldr	r3, [pc, #40]	; (10002c64 <pio_sm_set_consecutive_pindirs+0xc4>)
10002c3c:	4648      	mov	r0, r9
10002c3e:	4303      	orrs	r3, r0
10002c40:	32d8      	adds	r2, #216	; 0xd8
10002c42:	6013      	str	r3, [r2, #0]
10002c44:	465b      	mov	r3, fp
10002c46:	602b      	str	r3, [r5, #0]
10002c48:	1861      	adds	r1, r4, r1
10002c4a:	00c9      	lsls	r1, r1, #3
10002c4c:	1870      	adds	r0, r6, r1
10002c4e:	30cc      	adds	r0, #204	; 0xcc
10002c50:	4653      	mov	r3, sl
10002c52:	6003      	str	r3, [r0, #0]
10002c54:	b003      	add	sp, #12
10002c56:	bcf0      	pop	{r4, r5, r6, r7}
10002c58:	46bb      	mov	fp, r7
10002c5a:	46b2      	mov	sl, r6
10002c5c:	46a9      	mov	r9, r5
10002c5e:	46a0      	mov	r8, r4
10002c60:	bdf0      	pop	{r4, r5, r6, r7, pc}
10002c62:	46c0      	nop			; (mov r8, r8)
10002c64:	0000e080 	.word	0x0000e080

10002c68 <pio_sm_init>:
10002c68:	b570      	push	{r4, r5, r6, lr}
10002c6a:	6804      	ldr	r4, [r0, #0]
10002c6c:	2501      	movs	r5, #1
10002c6e:	408d      	lsls	r5, r1
10002c70:	43ac      	bics	r4, r5
10002c72:	6004      	str	r4, [r0, #0]
10002c74:	2b00      	cmp	r3, #0
10002c76:	d033      	beq.n	10002ce0 <pio_sm_init+0x78>
10002c78:	004c      	lsls	r4, r1, #1
10002c7a:	1864      	adds	r4, r4, r1
10002c7c:	00e4      	lsls	r4, r4, #3
10002c7e:	1904      	adds	r4, r0, r4
10002c80:	0025      	movs	r5, r4
10002c82:	35c8      	adds	r5, #200	; 0xc8
10002c84:	681e      	ldr	r6, [r3, #0]
10002c86:	602e      	str	r6, [r5, #0]
10002c88:	3504      	adds	r5, #4
10002c8a:	685e      	ldr	r6, [r3, #4]
10002c8c:	602e      	str	r6, [r5, #0]
10002c8e:	3504      	adds	r5, #4
10002c90:	689e      	ldr	r6, [r3, #8]
10002c92:	602e      	str	r6, [r5, #0]
10002c94:	68db      	ldr	r3, [r3, #12]
10002c96:	34dc      	adds	r4, #220	; 0xdc
10002c98:	6023      	str	r3, [r4, #0]
10002c9a:	004c      	lsls	r4, r1, #1
10002c9c:	1863      	adds	r3, r4, r1
10002c9e:	00db      	lsls	r3, r3, #3
10002ca0:	33d0      	adds	r3, #208	; 0xd0
10002ca2:	18c3      	adds	r3, r0, r3
10002ca4:	2580      	movs	r5, #128	; 0x80
10002ca6:	016d      	lsls	r5, r5, #5
10002ca8:	432b      	orrs	r3, r5
10002caa:	2580      	movs	r5, #128	; 0x80
10002cac:	062d      	lsls	r5, r5, #24
10002cae:	601d      	str	r5, [r3, #0]
10002cb0:	601d      	str	r5, [r3, #0]
10002cb2:	4b16      	ldr	r3, [pc, #88]	; (10002d0c <pio_sm_init+0xa4>)
10002cb4:	408b      	lsls	r3, r1
10002cb6:	6083      	str	r3, [r0, #8]
10002cb8:	1d0b      	adds	r3, r1, #4
10002cba:	2501      	movs	r5, #1
10002cbc:	002e      	movs	r6, r5
10002cbe:	409e      	lsls	r6, r3
10002cc0:	2380      	movs	r3, #128	; 0x80
10002cc2:	019b      	lsls	r3, r3, #6
10002cc4:	4303      	orrs	r3, r0
10002cc6:	601e      	str	r6, [r3, #0]
10002cc8:	000e      	movs	r6, r1
10002cca:	3608      	adds	r6, #8
10002ccc:	40b5      	lsls	r5, r6
10002cce:	601d      	str	r5, [r3, #0]
10002cd0:	231f      	movs	r3, #31
10002cd2:	401a      	ands	r2, r3
10002cd4:	1861      	adds	r1, r4, r1
10002cd6:	00c9      	lsls	r1, r1, #3
10002cd8:	1840      	adds	r0, r0, r1
10002cda:	30d8      	adds	r0, #216	; 0xd8
10002cdc:	6002      	str	r2, [r0, #0]
10002cde:	bd70      	pop	{r4, r5, r6, pc}
10002ce0:	004b      	lsls	r3, r1, #1
10002ce2:	185b      	adds	r3, r3, r1
10002ce4:	00db      	lsls	r3, r3, #3
10002ce6:	18c3      	adds	r3, r0, r3
10002ce8:	001c      	movs	r4, r3
10002cea:	34c8      	adds	r4, #200	; 0xc8
10002cec:	2580      	movs	r5, #128	; 0x80
10002cee:	026d      	lsls	r5, r5, #9
10002cf0:	6025      	str	r5, [r4, #0]
10002cf2:	3404      	adds	r4, #4
10002cf4:	25f8      	movs	r5, #248	; 0xf8
10002cf6:	026d      	lsls	r5, r5, #9
10002cf8:	6025      	str	r5, [r4, #0]
10002cfa:	3404      	adds	r4, #4
10002cfc:	25c0      	movs	r5, #192	; 0xc0
10002cfe:	032d      	lsls	r5, r5, #12
10002d00:	6025      	str	r5, [r4, #0]
10002d02:	33dc      	adds	r3, #220	; 0xdc
10002d04:	2400      	movs	r4, #0
10002d06:	601c      	str	r4, [r3, #0]
10002d08:	e7c7      	b.n	10002c9a <pio_sm_init+0x32>
10002d0a:	46c0      	nop			; (mov r8, r8)
10002d0c:	01010101 	.word	0x01010101

10002d10 <strlen>:
10002d10:	b510      	push	{r4, lr}
10002d12:	0783      	lsls	r3, r0, #30
10002d14:	d00a      	beq.n	10002d2c <strlen+0x1c>
10002d16:	0003      	movs	r3, r0
10002d18:	2103      	movs	r1, #3
10002d1a:	e002      	b.n	10002d22 <strlen+0x12>
10002d1c:	3301      	adds	r3, #1
10002d1e:	420b      	tst	r3, r1
10002d20:	d005      	beq.n	10002d2e <strlen+0x1e>
10002d22:	781a      	ldrb	r2, [r3, #0]
10002d24:	2a00      	cmp	r2, #0
10002d26:	d1f9      	bne.n	10002d1c <strlen+0xc>
10002d28:	1a18      	subs	r0, r3, r0
10002d2a:	bd10      	pop	{r4, pc}
10002d2c:	0003      	movs	r3, r0
10002d2e:	6819      	ldr	r1, [r3, #0]
10002d30:	4a0c      	ldr	r2, [pc, #48]	; (10002d64 <strlen+0x54>)
10002d32:	4c0d      	ldr	r4, [pc, #52]	; (10002d68 <strlen+0x58>)
10002d34:	188a      	adds	r2, r1, r2
10002d36:	438a      	bics	r2, r1
10002d38:	4222      	tst	r2, r4
10002d3a:	d10f      	bne.n	10002d5c <strlen+0x4c>
10002d3c:	6859      	ldr	r1, [r3, #4]
10002d3e:	4a09      	ldr	r2, [pc, #36]	; (10002d64 <strlen+0x54>)
10002d40:	3304      	adds	r3, #4
10002d42:	188a      	adds	r2, r1, r2
10002d44:	438a      	bics	r2, r1
10002d46:	4222      	tst	r2, r4
10002d48:	d108      	bne.n	10002d5c <strlen+0x4c>
10002d4a:	6859      	ldr	r1, [r3, #4]
10002d4c:	4a05      	ldr	r2, [pc, #20]	; (10002d64 <strlen+0x54>)
10002d4e:	3304      	adds	r3, #4
10002d50:	188a      	adds	r2, r1, r2
10002d52:	438a      	bics	r2, r1
10002d54:	4222      	tst	r2, r4
10002d56:	d0f1      	beq.n	10002d3c <strlen+0x2c>
10002d58:	e000      	b.n	10002d5c <strlen+0x4c>
10002d5a:	3301      	adds	r3, #1
10002d5c:	781a      	ldrb	r2, [r3, #0]
10002d5e:	2a00      	cmp	r2, #0
10002d60:	d1fb      	bne.n	10002d5a <strlen+0x4a>
10002d62:	e7e1      	b.n	10002d28 <strlen+0x18>
10002d64:	fefefeff 	.word	0xfefefeff
10002d68:	80808080 	.word	0x80808080

10002d6c <_fini>:
10002d6c:	b5f8      	push	{r3, r4, r5, r6, r7, lr}
10002d6e:	46c0      	nop			; (mov r8, r8)

10002d70 <__mutex_exit_veneer>:
10002d70:	b401      	push	{r0}
10002d72:	4802      	ldr	r0, [pc, #8]	; (10002d7c <__mutex_exit_veneer+0xc>)
10002d74:	4684      	mov	ip, r0
10002d76:	bc01      	pop	{r0}
10002d78:	4760      	bx	ip
10002d7a:	bf00      	nop
10002d7c:	200001a9 	.word	0x200001a9

10002d80 <____aeabi_ldiv0_veneer>:
10002d80:	b401      	push	{r0}
10002d82:	4802      	ldr	r0, [pc, #8]	; (10002d8c <____aeabi_ldiv0_veneer+0xc>)
10002d84:	4684      	mov	ip, r0
10002d86:	bc01      	pop	{r0}
10002d88:	4760      	bx	ip
10002d8a:	bf00      	nop
10002d8c:	200001d1 	.word	0x200001d1

10002d90 <____aeabi_idiv0_veneer>:
10002d90:	b401      	push	{r0}
10002d92:	4802      	ldr	r0, [pc, #8]	; (10002d9c <____aeabi_idiv0_veneer+0xc>)
10002d94:	4684      	mov	ip, r0
10002d96:	bc01      	pop	{r0}
10002d98:	4760      	bx	ip
10002d9a:	bf00      	nop
10002d9c:	200001d1 	.word	0x200001d1

10002da0 <__mutex_try_enter_block_until_veneer>:
10002da0:	b401      	push	{r0}
10002da2:	4802      	ldr	r0, [pc, #8]	; (10002dac <__mutex_try_enter_block_until_veneer+0xc>)
10002da4:	4684      	mov	ip, r0
10002da6:	bc01      	pop	{r0}
10002da8:	4760      	bx	ip
10002daa:	bf00      	nop
10002dac:	20000175 	.word	0x20000175

Disassembly of section .data:

200000c0 <mutex_try_enter>:
200000c0:	0003      	movs	r3, r0
200000c2:	6800      	ldr	r0, [r0, #0]
200000c4:	f3ef 8c10 	mrs	ip, PRIMASK
200000c8:	b672      	cpsid	i
200000ca:	6802      	ldr	r2, [r0, #0]
200000cc:	2a00      	cmp	r2, #0
200000ce:	d0fc      	beq.n	200000ca <mutex_try_enter+0xa>
200000d0:	f3bf 8f5f 	dmb	sy
200000d4:	2204      	movs	r2, #4
200000d6:	569a      	ldrsb	r2, [r3, r2]
200000d8:	2a00      	cmp	r2, #0
200000da:	db0b      	blt.n	200000f4 <mutex_try_enter+0x34>
200000dc:	2900      	cmp	r1, #0
200000de:	d00f      	beq.n	20000100 <mutex_try_enter+0x40>
200000e0:	600a      	str	r2, [r1, #0]
200000e2:	2000      	movs	r0, #0
200000e4:	681b      	ldr	r3, [r3, #0]
200000e6:	f3bf 8f5f 	dmb	sy
200000ea:	2200      	movs	r2, #0
200000ec:	601a      	str	r2, [r3, #0]
200000ee:	f38c 8810 	msr	PRIMASK, ip
200000f2:	4770      	bx	lr
200000f4:	22d0      	movs	r2, #208	; 0xd0
200000f6:	0612      	lsls	r2, r2, #24
200000f8:	6812      	ldr	r2, [r2, #0]
200000fa:	711a      	strb	r2, [r3, #4]
200000fc:	2001      	movs	r0, #1
200000fe:	e7f1      	b.n	200000e4 <mutex_try_enter+0x24>
20000100:	2000      	movs	r0, #0
20000102:	e7ef      	b.n	200000e4 <mutex_try_enter+0x24>

20000104 <mutex_enter_block_until>:
20000104:	b5f0      	push	{r4, r5, r6, r7, lr}
20000106:	46d6      	mov	lr, sl
20000108:	464f      	mov	r7, r9
2000010a:	4646      	mov	r6, r8
2000010c:	b5c0      	push	{r6, r7, lr}
2000010e:	0004      	movs	r4, r0
20000110:	4690      	mov	r8, r2
20000112:	001f      	movs	r7, r3
20000114:	23d0      	movs	r3, #208	; 0xd0
20000116:	061b      	lsls	r3, r3, #24
20000118:	681b      	ldr	r3, [r3, #0]
2000011a:	469a      	mov	sl, r3
2000011c:	2300      	movs	r3, #0
2000011e:	4699      	mov	r9, r3
20000120:	6826      	ldr	r6, [r4, #0]
20000122:	f3ef 8310 	mrs	r3, PRIMASK
20000126:	b672      	cpsid	i
20000128:	6835      	ldr	r5, [r6, #0]
2000012a:	2d00      	cmp	r5, #0
2000012c:	d0fc      	beq.n	20000128 <mutex_enter_block_until+0x24>
2000012e:	f3bf 8f5f 	dmb	sy
20000132:	7925      	ldrb	r5, [r4, #4]
20000134:	2d7f      	cmp	r5, #127	; 0x7f
20000136:	d80e      	bhi.n	20000156 <mutex_enter_block_until+0x52>
20000138:	6822      	ldr	r2, [r4, #0]
2000013a:	f3bf 8f5f 	dmb	sy
2000013e:	4649      	mov	r1, r9
20000140:	6011      	str	r1, [r2, #0]
20000142:	f383 8810 	msr	PRIMASK, r3
20000146:	4640      	mov	r0, r8
20000148:	0039      	movs	r1, r7
2000014a:	f000 f845 	bl	200001d8 <__best_effort_wfe_or_timeout_veneer>
2000014e:	2800      	cmp	r0, #0
20000150:	d0e6      	beq.n	20000120 <mutex_enter_block_until+0x1c>
20000152:	2000      	movs	r0, #0
20000154:	e009      	b.n	2000016a <mutex_enter_block_until+0x66>
20000156:	4652      	mov	r2, sl
20000158:	7122      	strb	r2, [r4, #4]
2000015a:	6822      	ldr	r2, [r4, #0]
2000015c:	f3bf 8f5f 	dmb	sy
20000160:	2100      	movs	r1, #0
20000162:	6011      	str	r1, [r2, #0]
20000164:	f383 8810 	msr	PRIMASK, r3
20000168:	2001      	movs	r0, #1
2000016a:	bce0      	pop	{r5, r6, r7}
2000016c:	46ba      	mov	sl, r7
2000016e:	46b1      	mov	r9, r6
20000170:	46a8      	mov	r8, r5
20000172:	bdf0      	pop	{r4, r5, r6, r7, pc}

20000174 <mutex_try_enter_block_until>:
20000174:	b570      	push	{r4, r5, r6, lr}
20000176:	b082      	sub	sp, #8
20000178:	0006      	movs	r6, r0
2000017a:	0015      	movs	r5, r2
2000017c:	001c      	movs	r4, r3
2000017e:	a901      	add	r1, sp, #4
20000180:	f7ff ff9e 	bl	200000c0 <mutex_try_enter>
20000184:	2800      	cmp	r0, #0
20000186:	d107      	bne.n	20000198 <mutex_try_enter_block_until+0x24>
20000188:	9b01      	ldr	r3, [sp, #4]
2000018a:	b25b      	sxtb	r3, r3
2000018c:	22d0      	movs	r2, #208	; 0xd0
2000018e:	0612      	lsls	r2, r2, #24
20000190:	7812      	ldrb	r2, [r2, #0]
20000192:	b252      	sxtb	r2, r2
20000194:	4293      	cmp	r3, r2
20000196:	d101      	bne.n	2000019c <mutex_try_enter_block_until+0x28>
20000198:	b002      	add	sp, #8
2000019a:	bd70      	pop	{r4, r5, r6, pc}
2000019c:	002a      	movs	r2, r5
2000019e:	0023      	movs	r3, r4
200001a0:	0030      	movs	r0, r6
200001a2:	f7ff ffaf 	bl	20000104 <mutex_enter_block_until>
200001a6:	e7f7      	b.n	20000198 <mutex_try_enter_block_until+0x24>

200001a8 <mutex_exit>:
200001a8:	6802      	ldr	r2, [r0, #0]
200001aa:	f3ef 8110 	mrs	r1, PRIMASK
200001ae:	b672      	cpsid	i
200001b0:	6813      	ldr	r3, [r2, #0]
200001b2:	2b00      	cmp	r3, #0
200001b4:	d0fc      	beq.n	200001b0 <mutex_exit+0x8>
200001b6:	f3bf 8f5f 	dmb	sy
200001ba:	23ff      	movs	r3, #255	; 0xff
200001bc:	7103      	strb	r3, [r0, #4]
200001be:	6803      	ldr	r3, [r0, #0]
200001c0:	f3bf 8f5f 	dmb	sy
200001c4:	2200      	movs	r2, #0
200001c6:	601a      	str	r2, [r3, #0]
200001c8:	f381 8810 	msr	PRIMASK, r1
200001cc:	bf40      	sev
200001ce:	4770      	bx	lr

200001d0 <__aeabi_idiv0>:
200001d0:	4770      	bx	lr
200001d2:	46c0      	nop			; (mov r8, r8)
200001d4:	0000      	movs	r0, r0
	...

200001d8 <__best_effort_wfe_or_timeout_veneer>:
200001d8:	b401      	push	{r0}
200001da:	4802      	ldr	r0, [pc, #8]	; (200001e4 <__best_effort_wfe_or_timeout_veneer+0xc>)
200001dc:	4684      	mov	ip, r0
200001de:	bc01      	pop	{r0}
200001e0:	4760      	bx	ip
200001e2:	bf00      	nop
200001e4:	100018a1 	.word	0x100018a1

200001e8 <pio_0>:
200001e8:	50200000                                .. P

200001ec <COLOR_BITMASKS>:
200001ec:	00003fc0 000036c0 00001240              .?...6..@...

200001f8 <chess>:
200001f8:	00000000 000000ff                       ........

20000200 <color_gpoio_bitmask>:
20000200:	00003fc0                                .?..

20000204 <colors>:
20000204:	00000000 00000007 0000003f 00000038     ........?...8...
20000214:	000000f8 0000000f 000000c0 000000ff     ................

20000224 <vga_data_array_start>:
20000224:	200006d8                                ... 

20000228 <striped_spin_lock_num>:
20000228:	00000010                                ....

2000022c <irq_handler_chain_slots>:
2000022c:	00000000 	.word	0x00000000
20000230:	00010000 	.word	0x00010000
	...
2000023c:	00020000 	.word	0x00020000
	...
20000248:	00030000 	.word	0x00030000
	...
20000254:	00ff0000 	.word	0x00ff0000
20000258:	00000000 	.word	0x00000000

2000025c <irq_handler_chain_first_slot>:
2000025c:	b501      	push	{r0, lr}
2000025e:	6848      	ldr	r0, [r1, #4]
20000260:	3101      	adds	r1, #1
20000262:	468e      	mov	lr, r1
20000264:	4700      	bx	r0

20000266 <irq_handler_chain_remove_tail>:
20000266:	4670      	mov	r0, lr
20000268:	3809      	subs	r0, #9
2000026a:	4901      	ldr	r1, [pc, #4]	; (20000270 <irq_handler_chain_remove_tail+0xa>)
2000026c:	4788      	blx	r1
2000026e:	bd01      	pop	{r0, pc}
20000270:	1000122d 	.word	0x1000122d

20000274 <default_alarm_pool>:
20000274:	2000028c 00000000 200002e0 2000044c     ... ....... L.. 
	...

2000028c <default_alarm_pool_heap>:
2000028c:	2000045c 00000000 00000000 00000010     \.. ............
2000029c:	00000000                                ....

200002a0 <aeabi_bits_funcs>:
200002a0:	00003350 	.word	0x00003350
200002a4:	0000334c 	.word	0x0000334c
200002a8:	00003354 	.word	0x00003354
200002ac:	00003352 	.word	0x00003352

200002b0 <aeabi_bits_funcs_end>:
200002b0:	0000534d 	.word	0x0000534d
200002b4:	0000434d 	.word	0x0000434d
200002b8:	00003453 	.word	0x00003453
200002bc:	00003443 	.word	0x00003443

200002c0 <print_mutex>:
	...

200002c8 <__mutex_array_end>:
200002c8:	10002869 	.word	0x10002869
200002cc:	10002241 	.word	0x10002241
200002d0:	1000275d 	.word	0x1000275d
200002d4:	100027e1 	.word	0x100027e1

200002d8 <__frame_dummy_init_array_entry>:
200002d8:	100002e5                                ....
